ARM GAS  /tmp/ccHz27EZ.s 			page 1


   1              		.syntax unified
   2              		.cpu cortex-m3
   3              		.fpu softvfp
   4              		.eabi_attribute 20, 1
   5              		.eabi_attribute 21, 1
   6              		.eabi_attribute 23, 3
   7              		.eabi_attribute 24, 1
   8              		.eabi_attribute 25, 1
   9              		.eabi_attribute 26, 1
  10              		.eabi_attribute 30, 6
  11              		.eabi_attribute 34, 1
  12              		.eabi_attribute 18, 4
  13              		.thumb
  14              		.file	"bluetooth_rxtx.c"
  15              		.text
  16              	.Ltext0:
  17              		.cfi_sections	.debug_frame
  18              		.data
  19              		.align	2
  22              	iap_entry:
  23 0000 F11FFF1F 		.word	536813553
  24              		.comm	target,16,8
  25              		.comm	syncword,8,8
  26              		.comm	afh_enabled,1,1
  27              		.comm	afh_map,10,4
  28              		.section	.rodata
  29              		.align	2
  32              	advertising_channels:
  33 0000 00       		.byte	0
  34 0001 0C       		.byte	12
  35 0002 27       		.byte	39
  36 0003 00       		.align	2
  39              	data_channels:
  40 0004 01       		.byte	1
  41 0005 02       		.byte	2
  42 0006 03       		.byte	3
  43 0007 04       		.byte	4
  44 0008 05       		.byte	5
  45 0009 06       		.byte	6
  46 000a 07       		.byte	7
  47 000b 08       		.byte	8
  48 000c 09       		.byte	9
  49 000d 0A       		.byte	10
  50 000e 0B       		.byte	11
  51 000f 0D       		.byte	13
  52 0010 0E       		.byte	14
  53 0011 0F       		.byte	15
  54 0012 10       		.byte	16
  55 0013 11       		.byte	17
  56 0014 12       		.byte	18
  57 0015 13       		.byte	19
  58 0016 14       		.byte	20
  59 0017 15       		.byte	21
  60 0018 16       		.byte	22
  61 0019 17       		.byte	23
  62 001a 18       		.byte	24
  63 001b 19       		.byte	25
ARM GAS  /tmp/ccHz27EZ.s 			page 2


  64 001c 1A       		.byte	26
  65 001d 1B       		.byte	27
  66 001e 1C       		.byte	28
  67 001f 1D       		.byte	29
  68 0020 1E       		.byte	30
  69 0021 1F       		.byte	31
  70 0022 20       		.byte	32
  71 0023 21       		.byte	33
  72 0024 22       		.byte	34
  73 0025 23       		.byte	35
  74 0026 24       		.byte	36
  75 0027 25       		.byte	37
  76 0028 26       		.byte	38
  77 0029 000000   		.align	2
  80              	whitening:
  81 002c 01       		.byte	1
  82 002d 01       		.byte	1
  83 002e 01       		.byte	1
  84 002f 01       		.byte	1
  85 0030 00       		.byte	0
  86 0031 01       		.byte	1
  87 0032 00       		.byte	0
  88 0033 01       		.byte	1
  89 0034 00       		.byte	0
  90 0035 01       		.byte	1
  91 0036 00       		.byte	0
  92 0037 00       		.byte	0
  93 0038 00       		.byte	0
  94 0039 00       		.byte	0
  95 003a 01       		.byte	1
  96 003b 00       		.byte	0
  97 003c 01       		.byte	1
  98 003d 01       		.byte	1
  99 003e 00       		.byte	0
 100 003f 01       		.byte	1
 101 0040 01       		.byte	1
 102 0041 01       		.byte	1
 103 0042 01       		.byte	1
 104 0043 00       		.byte	0
 105 0044 00       		.byte	0
 106 0045 01       		.byte	1
 107 0046 01       		.byte	1
 108 0047 01       		.byte	1
 109 0048 00       		.byte	0
 110 0049 00       		.byte	0
 111 004a 01       		.byte	1
 112 004b 00       		.byte	0
 113 004c 01       		.byte	1
 114 004d 00       		.byte	0
 115 004e 01       		.byte	1
 116 004f 01       		.byte	1
 117 0050 00       		.byte	0
 118 0051 00       		.byte	0
 119 0052 01       		.byte	1
 120 0053 01       		.byte	1
 121 0054 00       		.byte	0
 122 0055 00       		.byte	0
ARM GAS  /tmp/ccHz27EZ.s 			page 3


 123 0056 00       		.byte	0
 124 0057 00       		.byte	0
 125 0058 00       		.byte	0
 126 0059 01       		.byte	1
 127 005a 01       		.byte	1
 128 005b 00       		.byte	0
 129 005c 01       		.byte	1
 130 005d 01       		.byte	1
 131 005e 00       		.byte	0
 132 005f 01       		.byte	1
 133 0060 00       		.byte	0
 134 0061 01       		.byte	1
 135 0062 01       		.byte	1
 136 0063 01       		.byte	1
 137 0064 00       		.byte	0
 138 0065 01       		.byte	1
 139 0066 00       		.byte	0
 140 0067 00       		.byte	0
 141 0068 00       		.byte	0
 142 0069 01       		.byte	1
 143 006a 01       		.byte	1
 144 006b 00       		.byte	0
 145 006c 00       		.byte	0
 146 006d 01       		.byte	1
 147 006e 00       		.byte	0
 148 006f 00       		.byte	0
 149 0070 00       		.byte	0
 150 0071 01       		.byte	1
 151 0072 00       		.byte	0
 152 0073 00       		.byte	0
 153 0074 00       		.byte	0
 154 0075 00       		.byte	0
 155 0076 00       		.byte	0
 156 0077 00       		.byte	0
 157 0078 01       		.byte	1
 158 0079 00       		.byte	0
 159 007a 00       		.byte	0
 160 007b 01       		.byte	1
 161 007c 00       		.byte	0
 162 007d 00       		.byte	0
 163 007e 01       		.byte	1
 164 007f 01       		.byte	1
 165 0080 00       		.byte	0
 166 0081 01       		.byte	1
 167 0082 00       		.byte	0
 168 0083 00       		.byte	0
 169 0084 01       		.byte	1
 170 0085 01       		.byte	1
 171 0086 01       		.byte	1
 172 0087 01       		.byte	1
 173 0088 00       		.byte	0
 174 0089 01       		.byte	1
 175 008a 01       		.byte	1
 176 008b 01       		.byte	1
 177 008c 00       		.byte	0
 178 008d 00       		.byte	0
 179 008e 00       		.byte	0
ARM GAS  /tmp/ccHz27EZ.s 			page 4


 180 008f 00       		.byte	0
 181 0090 01       		.byte	1
 182 0091 01       		.byte	1
 183 0092 01       		.byte	1
 184 0093 01       		.byte	1
 185 0094 01       		.byte	1
 186 0095 01       		.byte	1
 187 0096 01       		.byte	1
 188 0097 00       		.byte	0
 189 0098 00       		.byte	0
 190 0099 00       		.byte	0
 191 009a 01       		.byte	1
 192 009b 01       		.byte	1
 193 009c 01       		.byte	1
 194 009d 00       		.byte	0
 195 009e 01       		.byte	1
 196 009f 01       		.byte	1
 197 00a0 00       		.byte	0
 198 00a1 00       		.byte	0
 199 00a2 00       		.byte	0
 200 00a3 01       		.byte	1
 201 00a4 00       		.byte	0
 202 00a5 01       		.byte	1
 203 00a6 00       		.byte	0
 204 00a7 00       		.byte	0
 205 00a8 01       		.byte	1
 206 00a9 00       		.byte	0
 207 00aa 01       		.byte	1
 208 00ab 00       		.align	2
 211              	whitening_index:
 212 00ac 46       		.byte	70
 213 00ad 3E       		.byte	62
 214 00ae 78       		.byte	120
 215 00af 6F       		.byte	111
 216 00b0 4D       		.byte	77
 217 00b1 2E       		.byte	46
 218 00b2 0F       		.byte	15
 219 00b3 65       		.byte	101
 220 00b4 42       		.byte	66
 221 00b5 27       		.byte	39
 222 00b6 1F       		.byte	31
 223 00b7 1A       		.byte	26
 224 00b8 50       		.byte	80
 225 00b9 53       		.byte	83
 226 00ba 7D       		.byte	125
 227 00bb 59       		.byte	89
 228 00bc 0A       		.byte	10
 229 00bd 23       		.byte	35
 230 00be 08       		.byte	8
 231 00bf 36       		.byte	54
 232 00c0 7A       		.byte	122
 233 00c1 11       		.byte	17
 234 00c2 21       		.byte	33
 235 00c3 00       		.byte	0
 236 00c4 3A       		.byte	58
 237 00c5 73       		.byte	115
 238 00c6 06       		.byte	6
ARM GAS  /tmp/ccHz27EZ.s 			page 5


 239 00c7 5E       		.byte	94
 240 00c8 56       		.byte	86
 241 00c9 31       		.byte	49
 242 00ca 34       		.byte	52
 243 00cb 14       		.byte	20
 244 00cc 28       		.byte	40
 245 00cd 1B       		.byte	27
 246 00ce 54       		.byte	84
 247 00cf 5A       		.byte	90
 248 00d0 3F       		.byte	63
 249 00d1 70       		.byte	112
 250 00d2 2F       		.byte	47
 251 00d3 66       		.byte	102
 252              		.align	2
 255              	hop_interval_lut:
 256 00d4 00       		.byte	0
 257 00d5 01       		.byte	1
 258 00d6 13       		.byte	19
 259 00d7 19       		.byte	25
 260 00d8 1C       		.byte	28
 261 00d9 0F       		.byte	15
 262 00da 1F       		.byte	31
 263 00db 10       		.byte	16
 264 00dc 0E       		.byte	14
 265 00dd 21       		.byte	33
 266 00de 1A       		.byte	26
 267 00df 1B       		.byte	27
 268 00e0 22       		.byte	34
 269 00e1 14       		.byte	20
 270 00e2 08       		.byte	8
 271 00e3 05       		.byte	5
 272 00e4 07       		.byte	7
 273 00e5 18       		.byte	24
 274 00e6 23       		.byte	35
 275 00e7 02       		.byte	2
 276 00e8 0D       		.byte	13
 277 00e9 1E       		.byte	30
 278 00ea 20       		.byte	32
 279 00eb 1D       		.byte	29
 280 00ec 11       		.byte	17
 281 00ed 03       		.byte	3
 282 00ee 0A       		.byte	10
 283 00ef 0B       		.byte	11
 284 00f0 04       		.byte	4
 285 00f1 17       		.byte	23
 286 00f2 15       		.byte	21
 287 00f3 06       		.byte	6
 288 00f4 16       		.byte	22
 289 00f5 09       		.byte	9
 290 00f6 0C       		.byte	12
 291 00f7 12       		.byte	18
 292 00f8 24       		.byte	36
 293 00f9 000000   		.align	2
 296              	whitening_word:
 297 00fc 40B2BCC3 		.word	-1011043776
 298 0100 1F374A5F 		.word	1598699295
 299 0104 85F69C9A 		.word	-1700989307
ARM GAS  /tmp/ccHz27EZ.s 			page 6


 300 0108 C1D6C544 		.word	1153816257
 301 010c 2059DEE1 		.word	-505521888
 302 0110 8F1BA5AF 		.word	-1348134001
 303 0114 427B4ECD 		.word	-850494654
 304 0118 60EB6222 		.word	576908128
 305 011c 902CEFF0 		.word	-252760944
 306 0120 C78DD257 		.word	1473416647
 307 0124 A13DA766 		.word	1722236321
 308 0128 B0753111 		.word	288454064
 309 012c 8940B2BC 		.word	-1129168759
 310 0130 C31F374A 		.word	1245126595
 311 0134 5F85F69C 		.word	-1661565601
 312 0138 9AC1D6C5 		.word	-975781478
 313 013c 442059DE 		.word	-564584380
 314 0140 E18F1BA5 		.word	-1524920351
 315 0144 AF427B4E 		.word	1316700847
 316 0148 CD60EB62 		.word	1659592909
 317 014c 22902CEF 		.word	-282292190
 318 0150 F0C78DD2 		.word	-762460176
 319 0154 57A13DA7 		.word	-1489133225
 320 0158 66B07531 		.word	829796454
 321 015c D257A13D 		.word	1033983954
 322 0160 A766B075 		.word	1974494887
 323 0164 31114896 		.word	-1773661903
 324 0168 77F8E346 		.word	1189345399
 325 016c E9ABD09E 		.word	-1630491671
 326 0170 5333D8BA 		.word	-1160236205
 327 0174 980824CB 		.word	-886830952
 328 0178 3BFC71A3 		.word	-1552810949
 329 017c F45568CF 		.word	-815245836
 330 0180 A9196C5D 		.word	1567365545
 331 0184 4C0492E5 		.word	-443415476
 332 0188 1DFEB851 		.word	1371078173
 333 018c 1BA5AF42 		.word	1118807323
 334 0190 7B4ECD60 		.word	1624067707
 335 0194 EB622290 		.word	-1876794645
 336 0198 2CEFF0C7 		.word	-940511444
 337 019c 8DD257A1 		.word	-1588079987
 338 01a0 3DA766B0 		.word	-1335449795
 339 01a4 75311148 		.word	1209086325
 340 01a8 9677F8E3 		.word	-470255722
 341 01ac 46E9ABD0 		.word	-794039994
 342 01b0 9E5333D8 		.word	-667724898
 343 01b4 BA980824 		.word	604543162
 344 01b8 CB3BFC71 		.word	1912355787
 345 01bc 6479873F 		.word	1065843044
 346 01c0 6E94BE0A 		.word	180261998
 347 01c4 ED393583 		.word	-2093663763
 348 01c8 AD8B8940 		.word	1082756013
 349 01cc B2BCC31F 		.word	532921522
 350 01d0 374A5F85 		.word	-2057352649
 351 01d4 F69C9AC1 		.word	-1046831882
 352 01d8 D6C54420 		.word	541378006
 353 01dc 59DEE18F 		.word	-1881022887
 354 01e0 1BA5AF42 		.word	1118807323
 355 01e4 7B4ECD60 		.word	1624067707
 356 01e8 EB622290 		.word	-1876794645
ARM GAS  /tmp/ccHz27EZ.s 			page 7


 357 01ec AD8B8940 		.word	1082756013
 358 01f0 B2BCC31F 		.word	532921522
 359 01f4 374A5F85 		.word	-2057352649
 360 01f8 F69C9AC1 		.word	-1046831882
 361 01fc D6C54420 		.word	541378006
 362 0200 59DEE18F 		.word	-1881022887
 363 0204 1BA5AF42 		.word	1118807323
 364 0208 7B4ECD60 		.word	1624067707
 365 020c EB622290 		.word	-1876794645
 366 0210 2CEFF0C7 		.word	-940511444
 367 0214 8DD257A1 		.word	-1588079987
 368 0218 3DA766B0 		.word	-1335449795
 369 021c F69C9AC1 		.word	-1046831882
 370 0220 D6C54420 		.word	541378006
 371 0224 59DEE18F 		.word	-1881022887
 372 0228 1BA5AF42 		.word	1118807323
 373 022c 7B4ECD60 		.word	1624067707
 374 0230 EB622290 		.word	-1876794645
 375 0234 2CEFF0C7 		.word	-940511444
 376 0238 8DD257A1 		.word	-1588079987
 377 023c 3DA766B0 		.word	-1335449795
 378 0240 75311148 		.word	1209086325
 379 0244 9677F8E3 		.word	-470255722
 380 0248 46E9ABD0 		.word	-794039994
 381 024c 3F6E94BE 		.word	-1097568705
 382 0250 0AED3935 		.word	892988682
 383 0254 83AD8B89 		.word	-1987334781
 384 0258 40B2BCC3 		.word	-1011043776
 385 025c 1F374A5F 		.word	1598699295
 386 0260 85F69C9A 		.word	-1700989307
 387 0264 C1D6C544 		.word	1153816257
 388 0268 2059DEE1 		.word	-505521888
 389 026c 8F1BA5AF 		.word	-1348134001
 390 0270 427B4ECD 		.word	-850494654
 391 0274 60EB6222 		.word	576908128
 392 0278 902CEFF0 		.word	-252760944
 393 027c 0824CB3B 		.word	1003168776
 394 0280 FC71A3F4 		.word	-190615044
 395 0284 5568CFA9 		.word	-1446025131
 396 0288 196C5D4C 		.word	1281190937
 397 028c 0492E51D 		.word	501584388
 398 0290 FEB851FA 		.word	-95307522
 399 0294 2AB4E7D4 		.word	-723012566
 400 0298 0CB62E26 		.word	640595468
 401 029c 02C9F20E 		.word	250792194
 402 02a0 7FDC287D 		.word	2099829887
 403 02a4 15DA736A 		.word	1785977365
 404 02a8 065B1713 		.word	320297734
 405 02ac C1D6C544 		.word	1153816257
 406 02b0 2059DEE1 		.word	-505521888
 407 02b4 8F1BA5AF 		.word	-1348134001
 408 02b8 427B4ECD 		.word	-850494654
 409 02bc 60EB6222 		.word	576908128
 410 02c0 902CEFF0 		.word	-252760944
 411 02c4 C78DD257 		.word	1473416647
 412 02c8 A13DA766 		.word	1722236321
 413 02cc B0753111 		.word	288454064
ARM GAS  /tmp/ccHz27EZ.s 			page 8


 414 02d0 489677F8 		.word	-126380472
 415 02d4 E346E9AB 		.word	-1410775325
 416 02d8 D09E5333 		.word	861118160
 417 02dc 9AC1D6C5 		.word	-975781478
 418 02e0 442059DE 		.word	-564584380
 419 02e4 E18F1BA5 		.word	-1524920351
 420 02e8 AF427B4E 		.word	1316700847
 421 02ec CD60EB62 		.word	1659592909
 422 02f0 22902CEF 		.word	-282292190
 423 02f4 F0C78DD2 		.word	-762460176
 424 02f8 57A13DA7 		.word	-1489133225
 425 02fc 66B07531 		.word	829796454
 426 0300 11489677 		.word	2006337553
 427 0304 F8E346E9 		.word	-381230088
 428 0308 ABD09E53 		.word	1402917035
 429 030c 5333D8BA 		.word	-1160236205
 430 0310 980824CB 		.word	-886830952
 431 0314 3BFC71A3 		.word	-1552810949
 432 0318 F45568CF 		.word	-815245836
 433 031c A9196C5D 		.word	1567365545
 434 0320 4C0492E5 		.word	-443415476
 435 0324 1DFEB851 		.word	1371078173
 436 0328 FA2AB4E7 		.word	-407622918
 437 032c D40CB62E 		.word	783682772
 438 0330 2602C9F2 		.word	-221707738
 439 0334 0E7FDC28 		.word	685539086
 440 0338 7D15DA73 		.word	1943672189
 441 033c 2CEFF0C7 		.word	-940511444
 442 0340 8DD257A1 		.word	-1588079987
 443 0344 3DA766B0 		.word	-1335449795
 444 0348 75311148 		.word	1209086325
 445 034c 9677F8E3 		.word	-470255722
 446 0350 46E9ABD0 		.word	-794039994
 447 0354 9E5333D8 		.word	-667724898
 448 0358 BA980824 		.word	604543162
 449 035c CB3BFC71 		.word	1912355787
 450 0360 A3F45568 		.word	1750463651
 451 0364 CFA9196C 		.word	1813621199
 452 0368 5D4C0492 		.word	-1845212067
 453 036c E51DFEB8 		.word	-1191305755
 454 0370 51FA2AB4 		.word	-1272251823
 455 0374 E7D40CB6 		.word	-1240673049
 456 0378 2E2602C9 		.word	-922606034
 457 037c F20E7FDC 		.word	-595652878
 458 0380 287D15DA 		.word	-636125912
 459 0384 736A065B 		.word	1527147123
 460 0388 17138164 		.word	1686180631
 461 038c 79873F6E 		.word	1849657209
 462 0390 94BE0AED 		.word	-318062956
 463 0394 393583AD 		.word	-1383910087
 464 0398 8B8940B2 		.word	-1304393333
 465 039c BE0AED39 		.word	971836094
 466 03a0 3583AD8B 		.word	-1951562955
 467 03a4 8940B2BC 		.word	-1129168759
 468 03a8 C31F374A 		.word	1245126595
 469 03ac 5F85F69C 		.word	-1661565601
 470 03b0 9AC1D6C5 		.word	-975781478
ARM GAS  /tmp/ccHz27EZ.s 			page 9


 471 03b4 442059DE 		.word	-564584380
 472 03b8 E18F1BA5 		.word	-1524920351
 473 03bc AF427B4E 		.word	1316700847
 474 03c0 CD60EB62 		.word	1659592909
 475 03c4 22902CEF 		.word	-282292190
 476 03c8 F0C78DD2 		.word	-762460176
 477 03cc 77F8E346 		.word	1189345399
 478 03d0 E9ABD09E 		.word	-1630491671
 479 03d4 5333D8BA 		.word	-1160236205
 480 03d8 980824CB 		.word	-886830952
 481 03dc 3BFC71A3 		.word	-1552810949
 482 03e0 F45568CF 		.word	-815245836
 483 03e4 A9196C5D 		.word	1567365545
 484 03e8 4C0492E5 		.word	-443415476
 485 03ec 1DFEB851 		.word	1371078173
 486 03f0 FA2AB4E7 		.word	-407622918
 487 03f4 D40CB62E 		.word	783682772
 488 03f8 2602C9F2 		.word	-221707738
 489 03fc D09E5333 		.word	861118160
 490 0400 D8BA9808 		.word	144227032
 491 0404 24CB3BFC 		.word	-63190236
 492 0408 71A3F455 		.word	1442095985
 493 040c 68CFA919 		.word	430559080
 494 0410 6C5D4C04 		.word	72113516
 495 0414 92E51DFE 		.word	-31595118
 496 0418 B851FA2A 		.word	721047992
 497 041c B4E7D40C 		.word	215279540
 498 0420 B62E2602 		.word	36056758
 499 0424 C9F20E7F 		.word	2131686089
 500 0428 DC287D15 		.word	360523996
 501 042c 196C5D4C 		.word	1281190937
 502 0430 0492E51D 		.word	501584388
 503 0434 FEB851FA 		.word	-95307522
 504 0438 2AB4E7D4 		.word	-723012566
 505 043c 0CB62E26 		.word	640595468
 506 0440 02C9F20E 		.word	250792194
 507 0444 7FDC287D 		.word	2099829887
 508 0448 15DA736A 		.word	1785977365
 509 044c 065B1713 		.word	320297734
 510 0450 81647987 		.word	-2022087551
 511 0454 3F6E94BE 		.word	-1097568705
 512 0458 0AED3935 		.word	892988682
 513 045c 427B4ECD 		.word	-850494654
 514 0460 60EB6222 		.word	576908128
 515 0464 902CEFF0 		.word	-252760944
 516 0468 C78DD257 		.word	1473416647
 517 046c A13DA766 		.word	1722236321
 518 0470 B0753111 		.word	288454064
 519 0474 489677F8 		.word	-126380472
 520 0478 E346E9AB 		.word	-1410775325
 521 047c D09E5333 		.word	861118160
 522 0480 D8BA9808 		.word	144227032
 523 0484 24CB3BFC 		.word	-63190236
 524 0488 71A3F455 		.word	1442095985
 525 048c 8B8940B2 		.word	-1304393333
 526 0490 BCC31F37 		.word	924828604
 527 0494 4A5F85F6 		.word	-159031478
ARM GAS  /tmp/ccHz27EZ.s 			page 10


 528 0498 9C9AC1D6 		.word	-691955044
 529 049c C5442059 		.word	1495286981
 530 04a0 DEE18F1B 		.word	462414302
 531 04a4 A5AF427B 		.word	2067967909
 532 04a8 4ECD60EB 		.word	-345977522
 533 04ac 6222902C 		.word	747643490
 534 04b0 EFF0C78D 		.word	-1916276497
 535 04b4 D257A13D 		.word	1033983954
 536 04b8 A766B075 		.word	1974494887
 537 04bc F45568CF 		.word	-815245836
 538 04c0 A9196C5D 		.word	1567365545
 539 04c4 4C0492E5 		.word	-443415476
 540 04c8 1DFEB851 		.word	1371078173
 541 04cc FA2AB4E7 		.word	-407622918
 542 04d0 D40CB62E 		.word	783682772
 543 04d4 2602C9F2 		.word	-221707738
 544 04d8 0E7FDC28 		.word	685539086
 545 04dc 7D15DA73 		.word	1943672189
 546 04e0 6A065B17 		.word	391841386
 547 04e4 13816479 		.word	2036629779
 548 04e8 873F6E94 		.word	-1804714105
 549 04ec 3DA766B0 		.word	-1335449795
 550 04f0 75311148 		.word	1209086325
 551 04f4 9677F8E3 		.word	-470255722
 552 04f8 46E9ABD0 		.word	-794039994
 553 04fc 9E5333D8 		.word	-667724898
 554 0500 BA980824 		.word	604543162
 555 0504 CB3BFC71 		.word	1912355787
 556 0508 A3F45568 		.word	1750463651
 557 050c CFA9196C 		.word	1813621199
 558 0510 5D4C0492 		.word	-1845212067
 559 0514 E51DFEB8 		.word	-1191305755
 560 0518 51FA2AB4 		.word	-1272251823
 561 051c 66B07531 		.word	829796454
 562 0520 11489677 		.word	2006337553
 563 0524 F8E346E9 		.word	-381230088
 564 0528 ABD09E53 		.word	1402917035
 565 052c 33D8BA98 		.word	-1732585421
 566 0530 0824CB3B 		.word	1003168776
 567 0534 FC71A3F4 		.word	-190615044
 568 0538 5568CFA9 		.word	-1446025131
 569 053c 196C5D4C 		.word	1281190937
 570 0540 0492E51D 		.word	501584388
 571 0544 FEB851FA 		.word	-95307522
 572 0548 2AB4E7D4 		.word	-723012566
 573 054c AF427B4E 		.word	1316700847
 574 0550 CD60EB62 		.word	1659592909
 575 0554 22902CEF 		.word	-282292190
 576 0558 F0C78DD2 		.word	-762460176
 577 055c 57A13DA7 		.word	-1489133225
 578 0560 66B07531 		.word	829796454
 579 0564 11489677 		.word	2006337553
 580 0568 F8E346E9 		.word	-381230088
 581 056c ABD09E53 		.word	1402917035
 582 0570 33D8BA98 		.word	-1732585421
 583 0574 0824CB3B 		.word	1003168776
 584 0578 FC71A3F4 		.word	-190615044
ARM GAS  /tmp/ccHz27EZ.s 			page 11


 585 057c 980824CB 		.word	-886830952
 586 0580 3BFC71A3 		.word	-1552810949
 587 0584 F45568CF 		.word	-815245836
 588 0588 A9196C5D 		.word	1567365545
 589 058c 4C0492E5 		.word	-443415476
 590 0590 1DFEB851 		.word	1371078173
 591 0594 FA2AB4E7 		.word	-407622918
 592 0598 D40CB62E 		.word	783682772
 593 059c 2602C9F2 		.word	-221707738
 594 05a0 0E7FDC28 		.word	685539086
 595 05a4 7D15DA73 		.word	1943672189
 596 05a8 6A065B17 		.word	391841386
 597 05ac 51FA2AB4 		.word	-1272251823
 598 05b0 E7D40CB6 		.word	-1240673049
 599 05b4 2E2602C9 		.word	-922606034
 600 05b8 F20E7FDC 		.word	-595652878
 601 05bc 287D15DA 		.word	-636125912
 602 05c0 736A065B 		.word	1527147123
 603 05c4 17138164 		.word	1686180631
 604 05c8 79873F6E 		.word	1849657209
 605 05cc 94BE0AED 		.word	-318062956
 606 05d0 393583AD 		.word	-1383910087
 607 05d4 8B8940B2 		.word	-1304393333
 608 05d8 BCC31F37 		.word	924828604
 609 05dc 0AED3935 		.word	892988682
 610 05e0 83AD8B89 		.word	-1987334781
 611 05e4 40B2BCC3 		.word	-1011043776
 612 05e8 1F374A5F 		.word	1598699295
 613 05ec 85F69C9A 		.word	-1700989307
 614 05f0 C1D6C544 		.word	1153816257
 615 05f4 2059DEE1 		.word	-505521888
 616 05f8 8F1BA5AF 		.word	-1348134001
 617 05fc 427B4ECD 		.word	-850494654
 618 0600 60EB6222 		.word	576908128
 619 0604 902CEFF0 		.word	-252760944
 620 0608 C78DD257 		.word	1473416647
 621 060c C31F374A 		.word	1245126595
 622 0610 5F85F69C 		.word	-1661565601
 623 0614 9AC1D6C5 		.word	-975781478
 624 0618 442059DE 		.word	-564584380
 625 061c E18F1BA5 		.word	-1524920351
 626 0620 AF427B4E 		.word	1316700847
 627 0624 CD60EB62 		.word	1659592909
 628 0628 22902CEF 		.word	-282292190
 629 062c F0C78DD2 		.word	-762460176
 630 0630 57A13DA7 		.word	-1489133225
 631 0634 66B07531 		.word	829796454
 632 0638 11489677 		.word	2006337553
 633 063c BCC31F37 		.word	924828604
 634 0640 4A5F85F6 		.word	-159031478
 635 0644 9C9AC1D6 		.word	-691955044
 636 0648 C5442059 		.word	1495286981
 637 064c DEE18F1B 		.word	462414302
 638 0650 A5AF427B 		.word	2067967909
 639 0654 4ECD60EB 		.word	-345977522
 640 0658 6222902C 		.word	747643490
 641 065c EFF0C78D 		.word	-1916276497
ARM GAS  /tmp/ccHz27EZ.s 			page 12


 642 0660 D257A13D 		.word	1033983954
 643 0664 A766B075 		.word	1974494887
 644 0668 31114896 		.word	-1773661903
 645 066c 75311148 		.word	1209086325
 646 0670 9677F8E3 		.word	-470255722
 647 0674 46E9ABD0 		.word	-794039994
 648 0678 9E5333D8 		.word	-667724898
 649 067c BA980824 		.word	604543162
 650 0680 CB3BFC71 		.word	1912355787
 651 0684 A3F45568 		.word	1750463651
 652 0688 CFA9196C 		.word	1813621199
 653 068c 5D4C0492 		.word	-1845212067
 654 0690 E51DFEB8 		.word	-1191305755
 655 0694 51FA2AB4 		.word	-1272251823
 656 0698 E7D40CB6 		.word	-1240673049
 657 069c 2E2602C9 		.word	-922606034
 658 06a0 F20E7FDC 		.word	-595652878
 659 06a4 287D15DA 		.word	-636125912
 660 06a8 736A065B 		.word	1527147123
 661 06ac 17138164 		.word	1686180631
 662 06b0 79873F6E 		.word	1849657209
 663 06b4 94BE0AED 		.word	-318062956
 664 06b8 393583AD 		.word	-1383910087
 665 06bc 8B8940B2 		.word	-1304393333
 666 06c0 BCC31F37 		.word	924828604
 667 06c4 4A5F85F6 		.word	-159031478
 668 06c8 9C9AC1D6 		.word	-691955044
 669 06cc E7D40CB6 		.word	-1240673049
 670 06d0 2E2602C9 		.word	-922606034
 671 06d4 F20E7FDC 		.word	-595652878
 672 06d8 287D15DA 		.word	-636125912
 673 06dc 736A065B 		.word	1527147123
 674 06e0 17138164 		.word	1686180631
 675 06e4 79873F6E 		.word	1849657209
 676 06e8 94BE0AED 		.word	-318062956
 677 06ec 393583AD 		.word	-1383910087
 678 06f0 8B8940B2 		.word	-1304393333
 679 06f4 BCC31F37 		.word	924828604
 680 06f8 4A5F85F6 		.word	-159031478
 681 06fc 60EB6222 		.word	576908128
 682 0700 902CEFF0 		.word	-252760944
 683 0704 C78DD257 		.word	1473416647
 684 0708 A13DA766 		.word	1722236321
 685 070c B0753111 		.word	288454064
 686 0710 489677F8 		.word	-126380472
 687 0714 E346E9AB 		.word	-1410775325
 688 0718 D09E5333 		.word	861118160
 689 071c D8BA9808 		.word	144227032
 690 0720 24CB3BFC 		.word	-63190236
 691 0724 71A3F455 		.word	1442095985
 692 0728 68CFA919 		.word	430559080
 693 072c A9196C5D 		.word	1567365545
 694 0730 4C0492E5 		.word	-443415476
 695 0734 1DFEB851 		.word	1371078173
 696 0738 FA2AB4E7 		.word	-407622918
 697 073c D40CB62E 		.word	783682772
 698 0740 2602C9F2 		.word	-221707738
ARM GAS  /tmp/ccHz27EZ.s 			page 13


 699 0744 0E7FDC28 		.word	685539086
 700 0748 7D15DA73 		.word	1943672189
 701 074c 6A065B17 		.word	391841386
 702 0750 13816479 		.word	2036629779
 703 0754 873F6E94 		.word	-1804714105
 704 0758 BE0AED39 		.word	971836094
 705 075c F20E7FDC 		.word	-595652878
 706 0760 287D15DA 		.word	-636125912
 707 0764 736A065B 		.word	1527147123
 708 0768 17138164 		.word	1686180631
 709 076c 79873F6E 		.word	1849657209
 710 0770 94BE0AED 		.word	-318062956
 711 0774 393583AD 		.word	-1383910087
 712 0778 8B8940B2 		.word	-1304393333
 713 077c BCC31F37 		.word	924828604
 714 0780 4A5F85F6 		.word	-159031478
 715 0784 9C9AC1D6 		.word	-691955044
 716 0788 C5442059 		.word	1495286981
 717 078c 3BFC71A3 		.word	-1552810949
 718 0790 F45568CF 		.word	-815245836
 719 0794 A9196C5D 		.word	1567365545
 720 0798 4C0492E5 		.word	-443415476
 721 079c 1DFEB851 		.word	1371078173
 722 07a0 FA2AB4E7 		.word	-407622918
 723 07a4 D40CB62E 		.word	783682772
 724 07a8 2602C9F2 		.word	-221707738
 725 07ac 0E7FDC28 		.word	685539086
 726 07b0 7D15DA73 		.word	1943672189
 727 07b4 6A065B17 		.word	391841386
 728 07b8 13816479 		.word	2036629779
 729 07bc 442059DE 		.word	-564584380
 730 07c0 E18F1BA5 		.word	-1524920351
 731 07c4 AF427B4E 		.word	1316700847
 732 07c8 CD60EB62 		.word	1659592909
 733 07cc 22902CEF 		.word	-282292190
 734 07d0 F0C78DD2 		.word	-762460176
 735 07d4 57A13DA7 		.word	-1489133225
 736 07d8 66B07531 		.word	829796454
 737 07dc 11489677 		.word	2006337553
 738 07e0 F8E346E9 		.word	-381230088
 739 07e4 ABD09E53 		.word	1402917035
 740 07e8 33D8BA98 		.word	-1732585421
 741 07ec 8DD257A1 		.word	-1588079987
 742 07f0 3DA766B0 		.word	-1335449795
 743 07f4 75311148 		.word	1209086325
 744 07f8 9677F8E3 		.word	-470255722
 745 07fc 46E9ABD0 		.word	-794039994
 746 0800 9E5333D8 		.word	-667724898
 747 0804 BA980824 		.word	604543162
 748 0808 CB3BFC71 		.word	1912355787
 749 080c A3F45568 		.word	1750463651
 750 0810 CFA9196C 		.word	1813621199
 751 0814 5D4C0492 		.word	-1845212067
 752 0818 E51DFEB8 		.word	-1191305755
 753 081c D6C54420 		.word	541378006
 754 0820 59DEE18F 		.word	-1881022887
 755 0824 1BA5AF42 		.word	1118807323
ARM GAS  /tmp/ccHz27EZ.s 			page 14


 756 0828 7B4ECD60 		.word	1624067707
 757 082c EB622290 		.word	-1876794645
 758 0830 2CEFF0C7 		.word	-940511444
 759 0834 8DD257A1 		.word	-1588079987
 760 0838 3DA766B0 		.word	-1335449795
 761 083c 75311148 		.word	1209086325
 762 0840 9677F8E3 		.word	-470255722
 763 0844 46E9ABD0 		.word	-794039994
 764 0848 9E5333D8 		.word	-667724898
 765 084c 1F374A5F 		.word	1598699295
 766 0850 85F69C9A 		.word	-1700989307
 767 0854 C1D6C544 		.word	1153816257
 768 0858 2059DEE1 		.word	-505521888
 769 085c 8F1BA5AF 		.word	-1348134001
 770 0860 427B4ECD 		.word	-850494654
 771 0864 60EB6222 		.word	576908128
 772 0868 902CEFF0 		.word	-252760944
 773 086c C78DD257 		.word	1473416647
 774 0870 A13DA766 		.word	1722236321
 775 0874 B0753111 		.word	288454064
 776 0878 489677F8 		.word	-126380472
 777              		.comm	rr,5,4
 778              		.global	compile_info
 779              		.align	2
 782              	compile_info:
 783 087c 75626572 		.ascii	"ubertooth 2015-10-R1 (jychoi@jychoi-R540-R580-R780-"
 783      746F6F74 
 783      68203230 
 783      31352D31 
 783      302D5231 
 784 08af 53413431 		.ascii	"SA41-E452-E852) 2016. 06. 20. (\354\233\224) 15:26:"
 784      2D453435 
 784      322D4538 
 784      35322920 
 784      32303136 
 785 08d9 3338204B 		.ascii	"38 KST\000"
 785      535400
 786              		.comm	clkn,4,4
 787              		.global	hop_mode
 788              		.bss
 791              	hop_mode:
 792 0000 00       		.space	1
 793              		.global	do_hop
 796              	do_hop:
 797 0001 00       		.space	1
 798              		.global	cs_no_squelch
 801              	cs_no_squelch:
 802 0002 00       		.space	1
 803              		.global	cs_threshold_req
 804              		.data
 807              	cs_threshold_req:
 808 0004 88       		.byte	-120
 809              		.global	cs_threshold_cur
 812              	cs_threshold_cur:
 813 0005 88       		.byte	-120
 814              		.comm	cs_trigger,1,1
 815              		.comm	keepalive_trigger,1,1
ARM GAS  /tmp/ccHz27EZ.s 			page 15


 816              		.comm	cs_timestamp,4,4
 817              		.global	hop_direct_channel
 818              		.bss
 819 0003 00       		.align	1
 822              	hop_direct_channel:
 823 0004 0000     		.space	2
 824              		.global	clock_trim
 825 0006 0000     		.align	2
 828              	clock_trim:
 829 0008 00000000 		.space	4
 830              		.comm	idle_buf_clkn_high,4,4
 831              		.comm	active_buf_clkn_high,4,4
 832              		.comm	idle_buf_clk100ns,4,4
 833              		.comm	active_buf_clk100ns,4,4
 834              		.global	idle_buf_channel
 835              		.align	1
 838              	idle_buf_channel:
 839 000c 0000     		.space	2
 840              		.global	active_buf_channel
 841              		.align	1
 844              	active_buf_channel:
 845 000e 0000     		.space	2
 846              		.global	slave_mac_address
 847              		.align	2
 850              	slave_mac_address:
 851 0010 00000000 		.space	6
 851      0000
 852              		.comm	rxbuf1,50,4
 853              		.comm	rxbuf2,50,4
 854              		.global	active_rxbuf
 855              		.data
 856 0006 0000     		.align	2
 859              	active_rxbuf:
 860 0008 00000000 		.word	rxbuf1
 861              		.global	idle_rxbuf
 862              		.align	2
 865              	idle_rxbuf:
 866 000c 00000000 		.word	rxbuf2
 867              		.global	le
 868              		.align	2
 871              	le:
 872 0010 D6BE898E 		.word	-1903575338
 873 0014 7D6B     		.short	27517
 874 0016 7191     		.short	-28303
 875 0018 55555500 		.word	5592405
 876 001c AAAAAA00 		.word	11184810
 877 0020 01000000 		.word	1
 878 0024 00       		.byte	0
 879 0025 000000   		.space	3
 880 0028 00000000 		.word	0
 881 002c 00000000 		.space	32
 881      00000000 
 881      00000000 
 881      00000000 
 881      00000000 
 882 004c 00000000 		.word	0
 883 0050 00000000 		.word	0
ARM GAS  /tmp/ccHz27EZ.s 			page 16


 884              		.comm	le_promisc,264,4
 885              		.global	le_jam_count
 886              		.bss
 887 0016 0000     		.align	2
 890              	le_jam_count:
 891 0018 00000000 		.space	4
 892              		.global	data_cb
 893              		.align	2
 896              	data_cb:
 897 001c 00000000 		.space	4
 898              		.global	packet_cb
 899              		.align	2
 902              	packet_cb:
 903 0020 00000000 		.space	4
 904              		.global	rssi_iir
 905              		.align	2
 908              	rssi_iir:
 909 0024 00000000 		.space	158
 909      00000000 
 909      00000000 
 909      00000000 
 909      00000000 
 910              		.comm	unpacked,800,4
 911              		.global	mode
 914              	mode:
 915 00c2 00       		.space	1
 916              		.global	requested_mode
 919              	requested_mode:
 920 00c3 00       		.space	1
 921              		.global	jam_mode
 924              	jam_mode:
 925 00c4 00       		.space	1
 926              		.global	ego_mode
 929              	ego_mode:
 930 00c5 00       		.space	1
 931              		.global	modulation
 934              	modulation:
 935 00c6 00       		.space	1
 936              		.global	channel
 937              		.data
 938              		.align	1
 941              	channel:
 942 0054 6209     		.short	2402
 943              		.global	requested_channel
 944              		.bss
 945 00c7 00       		.align	1
 948              	requested_channel:
 949 00c8 0000     		.space	2
 950              		.global	saved_request
 951              		.align	1
 954              	saved_request:
 955 00ca 0000     		.space	2
 956              		.global	low_freq
 957              		.data
 958              		.align	1
 961              	low_freq:
 962 0056 6009     		.short	2400
ARM GAS  /tmp/ccHz27EZ.s 			page 17


 963              		.global	high_freq
 964              		.align	1
 967              	high_freq:
 968 0058 B309     		.short	2483
 969              		.global	rssi_threshold
 972              	rssi_threshold:
 973 005a E2       		.byte	-30
 974              		.comm	rx_dma_lli1,16,4
 975              		.comm	rx_dma_lli2,16,4
 976              		.comm	le_dma_lli,176,4
 977              		.comm	rx_tc,4,4
 978              		.comm	rx_err,4,4
 979              		.global	status
 980              		.bss
 983              	status:
 984 00cc 00       		.space	1
 985              		.comm	rssi_max,1,1
 986              		.comm	rssi_min,1,1
 987              		.global	rssi_count
 990              	rssi_count:
 991 00cd 00       		.space	1
 992              		.global	rssi_sum
 993 00ce 0000     		.align	2
 996              	rssi_sum:
 997 00d0 00000000 		.space	4
 998              		.comm	rssi_avg,1,1
 999              		.comm	rssi_sample,72,4
 1000              		.section	.text.rssi_reset,"ax",%progbits
 1001              		.align	2
 1002              		.thumb
 1003              		.thumb_func
 1005              	rssi_reset:
 1006              	.LFB0:
 1007              		.file 1 "bluetooth_rxtx.c"
   1:bluetooth_rxtx.c **** /*
   2:bluetooth_rxtx.c ****  * Copyright 2010-2013 Michael Ossmann
   3:bluetooth_rxtx.c ****  * Copyright 2011-2013 Dominic Spill
   4:bluetooth_rxtx.c ****  *
   5:bluetooth_rxtx.c ****  * This file is part of Project Ubertooth.
   6:bluetooth_rxtx.c ****  *
   7:bluetooth_rxtx.c ****  * This program is free software; you can redistribute it and/or modify
   8:bluetooth_rxtx.c ****  * it under the terms of the GNU General Public License as published by
   9:bluetooth_rxtx.c ****  * the Free Software Foundation; either version 2, or (at your option)
  10:bluetooth_rxtx.c ****  * any later version.
  11:bluetooth_rxtx.c ****  *
  12:bluetooth_rxtx.c ****  * This program is distributed in the hope that it will be useful,
  13:bluetooth_rxtx.c ****  * but WITHOUT ANY WARRANTY; without even the implied warranty of
  14:bluetooth_rxtx.c ****  * MERCHANTABILITY or FITNESS FOR A PARTICULAR PURPOSE.  See the
  15:bluetooth_rxtx.c ****  * GNU General Public License for more details.
  16:bluetooth_rxtx.c ****  *
  17:bluetooth_rxtx.c ****  * You should have received a copy of the GNU General Public License
  18:bluetooth_rxtx.c ****  * along with this program; see the file COPYING.  If not, write to
  19:bluetooth_rxtx.c ****  * the Free Software Foundation, Inc., 51 Franklin Street,
  20:bluetooth_rxtx.c ****  * Boston, MA 02110-1301, USA.
  21:bluetooth_rxtx.c ****  */
  22:bluetooth_rxtx.c **** 
  23:bluetooth_rxtx.c **** #include <string.h>
ARM GAS  /tmp/ccHz27EZ.s 			page 18


  24:bluetooth_rxtx.c **** 
  25:bluetooth_rxtx.c **** #include "ubertooth.h"
  26:bluetooth_rxtx.c **** #include "ubertooth_usb.h"
  27:bluetooth_rxtx.c **** #include "ubertooth_interface.h"
  28:bluetooth_rxtx.c **** #include "bluetooth.h"
  29:bluetooth_rxtx.c **** #include "bluetooth_le.h"
  30:bluetooth_rxtx.c **** #include "cc2400_rangetest.h"
  31:bluetooth_rxtx.c **** #include "ego.h"
  32:bluetooth_rxtx.c **** 
  33:bluetooth_rxtx.c **** #define MIN(x,y)	((x)<(y)?(x):(y))
  34:bluetooth_rxtx.c **** #define MAX(x,y)	((x)>(y)?(x):(y))
  35:bluetooth_rxtx.c **** 
  36:bluetooth_rxtx.c **** /* build info */
  37:bluetooth_rxtx.c **** const char compile_info[] =
  38:bluetooth_rxtx.c **** 	"ubertooth " GIT_REVISION " (" COMPILE_BY "@" COMPILE_HOST ") " TIMESTAMP;
  39:bluetooth_rxtx.c **** 
  40:bluetooth_rxtx.c **** /*
  41:bluetooth_rxtx.c ****  * CLK100NS is a free-running clock with a period of 100 ns.  It resets every
  42:bluetooth_rxtx.c ****  * 2^15 * 10^5 cycles (about 5.5 minutes) - computed from clkn and timer0 (T0TC)
  43:bluetooth_rxtx.c ****  *
  44:bluetooth_rxtx.c ****  * clkn is the native (local) clock as defined in the Bluetooth specification.
  45:bluetooth_rxtx.c ****  * It advances 3200 times per second.  Two clkn periods make a Bluetooth time
  46:bluetooth_rxtx.c ****  * slot.
  47:bluetooth_rxtx.c ****  */
  48:bluetooth_rxtx.c **** 
  49:bluetooth_rxtx.c **** volatile u32 clkn;                       // clkn 3200 Hz counter
  50:bluetooth_rxtx.c **** #define CLK100NS (3125*(clkn & 0xfffff) + T0TC)
  51:bluetooth_rxtx.c **** #define LE_BASECLK (12500)               // 1.25 ms in units of 100ns
  52:bluetooth_rxtx.c **** 
  53:bluetooth_rxtx.c **** #define HOP_NONE      0
  54:bluetooth_rxtx.c **** #define HOP_SWEEP     1
  55:bluetooth_rxtx.c **** #define HOP_BLUETOOTH 2
  56:bluetooth_rxtx.c **** #define HOP_BTLE      3
  57:bluetooth_rxtx.c **** #define HOP_DIRECT    4
  58:bluetooth_rxtx.c **** 
  59:bluetooth_rxtx.c **** #define CS_THRESHOLD_DEFAULT (uint8_t)(-120)
  60:bluetooth_rxtx.c **** #define CS_HOLD_TIME  2                     // min pkts to send on trig (>=1)
  61:bluetooth_rxtx.c **** u8 hop_mode = HOP_NONE;
  62:bluetooth_rxtx.c **** volatile u8 do_hop = 0;                     // set by timer interrupt
  63:bluetooth_rxtx.c **** 
  64:bluetooth_rxtx.c **** u8 cs_no_squelch = 0;                       // rx all packets if set
  65:bluetooth_rxtx.c **** int8_t cs_threshold_req=CS_THRESHOLD_DEFAULT; // requested CS threshold in dBm
  66:bluetooth_rxtx.c **** int8_t cs_threshold_cur=CS_THRESHOLD_DEFAULT; // current CS threshold in dBm
  67:bluetooth_rxtx.c **** volatile u8 cs_trigger;                     // set by intr on P2.2 falling (CS)
  68:bluetooth_rxtx.c **** volatile u8 keepalive_trigger;              // set by timer 1/s
  69:bluetooth_rxtx.c **** volatile u32 cs_timestamp;                  // CLK100NS at time of cs_trigger
  70:bluetooth_rxtx.c **** u16 hop_direct_channel = 0;                 // for hopping directly to a channel
  71:bluetooth_rxtx.c **** int clock_trim = 0;                         // to counteract clock drift
  72:bluetooth_rxtx.c **** volatile u32 idle_buf_clkn_high;
  73:bluetooth_rxtx.c **** volatile u32 active_buf_clkn_high;
  74:bluetooth_rxtx.c **** volatile u32 idle_buf_clk100ns;
  75:bluetooth_rxtx.c **** volatile u32 active_buf_clk100ns;
  76:bluetooth_rxtx.c **** volatile u16 idle_buf_channel = 0;
  77:bluetooth_rxtx.c **** volatile u16 active_buf_channel = 0;
  78:bluetooth_rxtx.c **** u8 slave_mac_address[6] = { 0, };
  79:bluetooth_rxtx.c **** 
  80:bluetooth_rxtx.c **** /* DMA buffers */
ARM GAS  /tmp/ccHz27EZ.s 			page 19


  81:bluetooth_rxtx.c **** u8 rxbuf1[DMA_SIZE];
  82:bluetooth_rxtx.c **** u8 rxbuf2[DMA_SIZE];
  83:bluetooth_rxtx.c **** 
  84:bluetooth_rxtx.c **** /*
  85:bluetooth_rxtx.c ****  * The active buffer is the one with an active DMA transfer.
  86:bluetooth_rxtx.c ****  * The idle buffer is the one we can read/write between transfers.
  87:bluetooth_rxtx.c ****  */
  88:bluetooth_rxtx.c **** u8 *active_rxbuf = &rxbuf1[0];
  89:bluetooth_rxtx.c **** u8 *idle_rxbuf = &rxbuf2[0];
  90:bluetooth_rxtx.c **** 
  91:bluetooth_rxtx.c **** le_state_t le = {
  92:bluetooth_rxtx.c **** 	.access_address = 0x8e89bed6,           // advertising channel access address
  93:bluetooth_rxtx.c **** 	.synch = 0x6b7d,                        // bit-reversed adv channel AA
  94:bluetooth_rxtx.c **** 	.syncl = 0x9171,
  95:bluetooth_rxtx.c **** 	.crc_init  = 0x555555,                  // advertising channel CRCInit
  96:bluetooth_rxtx.c **** 	.crc_init_reversed = 0xAAAAAA,
  97:bluetooth_rxtx.c **** 	.crc_verify = 1,
  98:bluetooth_rxtx.c **** 
  99:bluetooth_rxtx.c **** 	.link_state = LINK_INACTIVE,
 100:bluetooth_rxtx.c **** 	.conn_epoch = 0,
 101:bluetooth_rxtx.c **** 	.target_set = 0,
 102:bluetooth_rxtx.c **** 	.last_packet = 0,
 103:bluetooth_rxtx.c **** };
 104:bluetooth_rxtx.c **** 
 105:bluetooth_rxtx.c **** typedef struct _le_promisc_active_aa_t {
 106:bluetooth_rxtx.c **** 	u32 aa;
 107:bluetooth_rxtx.c **** 	int count;
 108:bluetooth_rxtx.c **** } le_promisc_active_aa_t;
 109:bluetooth_rxtx.c **** 
 110:bluetooth_rxtx.c **** typedef struct _le_promisc_state_t {
 111:bluetooth_rxtx.c **** 	// LFU cache of recently seen AA's
 112:bluetooth_rxtx.c **** 	le_promisc_active_aa_t active_aa[32];
 113:bluetooth_rxtx.c **** 
 114:bluetooth_rxtx.c **** 	// recovering hop interval
 115:bluetooth_rxtx.c **** 	u32 smallest_hop_interval;
 116:bluetooth_rxtx.c **** 	int consec_intervals;
 117:bluetooth_rxtx.c **** } le_promisc_state_t;
 118:bluetooth_rxtx.c **** le_promisc_state_t le_promisc;
 119:bluetooth_rxtx.c **** #define AA_LIST_SIZE (int)(sizeof(le_promisc.active_aa) / sizeof(le_promisc_active_aa_t))
 120:bluetooth_rxtx.c **** 
 121:bluetooth_rxtx.c **** /* LE jamming */
 122:bluetooth_rxtx.c **** #define JAM_COUNT_DEFAULT 40
 123:bluetooth_rxtx.c **** int le_jam_count = 0;
 124:bluetooth_rxtx.c **** 
 125:bluetooth_rxtx.c **** /* set LE access address */
 126:bluetooth_rxtx.c **** static void le_set_access_address(u32 aa);
 127:bluetooth_rxtx.c **** 
 128:bluetooth_rxtx.c **** typedef int (*data_cb_t)(char *);
 129:bluetooth_rxtx.c **** data_cb_t data_cb = NULL;
 130:bluetooth_rxtx.c **** 
 131:bluetooth_rxtx.c **** typedef void (*packet_cb_t)(u8 *);
 132:bluetooth_rxtx.c **** packet_cb_t packet_cb = NULL;
 133:bluetooth_rxtx.c **** 
 134:bluetooth_rxtx.c **** /* Moving average (IIR) of average RSSI of packets as scaled integers (x256). */
 135:bluetooth_rxtx.c **** int16_t rssi_iir[79] = {0};
 136:bluetooth_rxtx.c **** #define RSSI_IIR_ALPHA 3       // 3/256 = .012
 137:bluetooth_rxtx.c **** 
ARM GAS  /tmp/ccHz27EZ.s 			page 20


 138:bluetooth_rxtx.c **** /*
 139:bluetooth_rxtx.c ****  * CLK_TUNE_TIME is the duration in units of 100 ns that we reserve for tuning
 140:bluetooth_rxtx.c ****  * the radio while frequency hopping.  We start the tuning process
 141:bluetooth_rxtx.c ****  * CLK_TUNE_TIME * 100 ns prior to the start of an upcoming time slot.
 142:bluetooth_rxtx.c **** */
 143:bluetooth_rxtx.c **** #define CLK_TUNE_TIME   2250
 144:bluetooth_rxtx.c **** 
 145:bluetooth_rxtx.c **** /* Unpacked symbol buffers (two rxbufs) */
 146:bluetooth_rxtx.c **** char unpacked[DMA_SIZE*8*2];
 147:bluetooth_rxtx.c **** 
 148:bluetooth_rxtx.c **** volatile u8 mode = MODE_IDLE;
 149:bluetooth_rxtx.c **** volatile u8 requested_mode = MODE_IDLE;
 150:bluetooth_rxtx.c **** volatile u8 jam_mode = JAM_NONE;
 151:bluetooth_rxtx.c **** volatile u8 ego_mode = 0;
 152:bluetooth_rxtx.c **** volatile u8 modulation = MOD_BT_BASIC_RATE;
 153:bluetooth_rxtx.c **** volatile u16 channel = 2402;
 154:bluetooth_rxtx.c **** volatile u16 requested_channel = 0;
 155:bluetooth_rxtx.c **** volatile u16 saved_request = 0;
 156:bluetooth_rxtx.c **** volatile u16 low_freq = 2400;
 157:bluetooth_rxtx.c **** volatile u16 high_freq = 2483;
 158:bluetooth_rxtx.c **** volatile int8_t rssi_threshold = -30;  // -54dBm - 30 = -84dBm
 159:bluetooth_rxtx.c **** 
 160:bluetooth_rxtx.c **** /* DMA linked list items */
 161:bluetooth_rxtx.c **** typedef struct {
 162:bluetooth_rxtx.c **** 	u32 src;
 163:bluetooth_rxtx.c **** 	u32 dest;
 164:bluetooth_rxtx.c **** 	u32 next_lli;
 165:bluetooth_rxtx.c **** 	u32 control;
 166:bluetooth_rxtx.c **** } dma_lli;
 167:bluetooth_rxtx.c **** 
 168:bluetooth_rxtx.c **** dma_lli rx_dma_lli1;
 169:bluetooth_rxtx.c **** dma_lli rx_dma_lli2;
 170:bluetooth_rxtx.c **** 
 171:bluetooth_rxtx.c **** dma_lli le_dma_lli[11]; // 11 x 4 bytes
 172:bluetooth_rxtx.c **** 
 173:bluetooth_rxtx.c **** /* rx terminal count and error interrupt counters */
 174:bluetooth_rxtx.c **** volatile u32 rx_tc;
 175:bluetooth_rxtx.c **** volatile u32 rx_err;
 176:bluetooth_rxtx.c **** 
 177:bluetooth_rxtx.c **** /* status information byte */
 178:bluetooth_rxtx.c **** volatile u8 status = 0;
 179:bluetooth_rxtx.c **** 
 180:bluetooth_rxtx.c **** #define DMA_OVERFLOW  0x01
 181:bluetooth_rxtx.c **** #define DMA_ERROR     0x02
 182:bluetooth_rxtx.c **** #define FIFO_OVERFLOW 0x04
 183:bluetooth_rxtx.c **** #define CS_TRIGGER    0x08
 184:bluetooth_rxtx.c **** #define RSSI_TRIGGER  0x10
 185:bluetooth_rxtx.c **** 
 186:bluetooth_rxtx.c **** /*
 187:bluetooth_rxtx.c ****  * RSSI
 188:bluetooth_rxtx.c ****  */
 189:bluetooth_rxtx.c **** int8_t rssi_max;
 190:bluetooth_rxtx.c **** int8_t rssi_min;
 191:bluetooth_rxtx.c **** uint8_t rssi_count = 0;
 192:bluetooth_rxtx.c **** int32_t rssi_sum = 0;
 193:bluetooth_rxtx.c **** int8_t rssi_avg;
 194:bluetooth_rxtx.c **** rssi_s rssi_sample[9];
ARM GAS  /tmp/ccHz27EZ.s 			page 21


 195:bluetooth_rxtx.c **** 
 196:bluetooth_rxtx.c **** static void rssi_reset(void)
 197:bluetooth_rxtx.c **** {
 1008              		.loc 1 197 0
 1009              		.cfi_startproc
 1010              		@ args = 0, pretend = 0, frame = 0
 1011              		@ frame_needed = 1, uses_anonymous_args = 0
 1012 0000 80B5     		push	{r7, lr}
 1013              		.cfi_def_cfa_offset 8
 1014              		.cfi_offset 7, -8
 1015              		.cfi_offset 14, -4
 1016 0002 00AF     		add	r7, sp, #0
 1017              		.cfi_def_cfa_register 7
 198:bluetooth_rxtx.c **** 	rssi_count = 0;
 1018              		.loc 1 198 0
 1019 0004 0A4B     		ldr	r3, .L2
 1020 0006 0022     		movs	r2, #0
 1021 0008 1A70     		strb	r2, [r3]
 199:bluetooth_rxtx.c **** 	rssi_sum = 0;
 1022              		.loc 1 199 0
 1023 000a 0A4B     		ldr	r3, .L2+4
 1024 000c 0022     		movs	r2, #0
 1025 000e 1A60     		str	r2, [r3]
 200:bluetooth_rxtx.c **** 	rssi_max = INT8_MIN;
 1026              		.loc 1 200 0
 1027 0010 094B     		ldr	r3, .L2+8
 1028 0012 8022     		movs	r2, #128
 1029 0014 1A70     		strb	r2, [r3]
 201:bluetooth_rxtx.c **** 	rssi_min = INT8_MAX;
 1030              		.loc 1 201 0
 1031 0016 094B     		ldr	r3, .L2+12
 1032 0018 7F22     		movs	r2, #127
 1033 001a 1A70     		strb	r2, [r3]
 202:bluetooth_rxtx.c **** 	rssi_avg = 0;
 1034              		.loc 1 202 0
 1035 001c 084B     		ldr	r3, .L2+16
 1036 001e 0022     		movs	r2, #0
 1037 0020 1A70     		strb	r2, [r3]
 203:bluetooth_rxtx.c **** 	memset(rssi_sample, 0, sizeof(rssi_sample)*9);
 1038              		.loc 1 203 0
 1039 0022 0848     		ldr	r0, .L2+20
 1040 0024 0021     		movs	r1, #0
 1041 0026 4FF42272 		mov	r2, #648
 1042 002a FFF7FEFF 		bl	memset
 204:bluetooth_rxtx.c **** }
 1043              		.loc 1 204 0
 1044 002e 80BD     		pop	{r7, pc}
 1045              	.L3:
 1046              		.align	2
 1047              	.L2:
 1048 0030 00000000 		.word	rssi_count
 1049 0034 00000000 		.word	rssi_sum
 1050 0038 00000000 		.word	rssi_max
 1051 003c 00000000 		.word	rssi_min
 1052 0040 00000000 		.word	rssi_avg
 1053 0044 00000000 		.word	rssi_sample
 1054              		.cfi_endproc
ARM GAS  /tmp/ccHz27EZ.s 			page 22


 1055              	.LFE0:
 1057              		.section	.text.rssi_add,"ax",%progbits
 1058              		.align	2
 1059              		.thumb
 1060              		.thumb_func
 1062              	rssi_add:
 1063              	.LFB1:
 205:bluetooth_rxtx.c **** 
 206:bluetooth_rxtx.c **** static void rssi_add(int8_t v)
 207:bluetooth_rxtx.c **** {
 1064              		.loc 1 207 0
 1065              		.cfi_startproc
 1066              		@ args = 0, pretend = 0, frame = 8
 1067              		@ frame_needed = 1, uses_anonymous_args = 0
 1068              		@ link register save eliminated.
 1069 0000 80B4     		push	{r7}
 1070              		.cfi_def_cfa_offset 4
 1071              		.cfi_offset 7, -4
 1072 0002 83B0     		sub	sp, sp, #12
 1073              		.cfi_def_cfa_offset 16
 1074 0004 00AF     		add	r7, sp, #0
 1075              		.cfi_def_cfa_register 7
 1076 0006 0346     		mov	r3, r0
 1077 0008 FB71     		strb	r3, [r7, #7]
 208:bluetooth_rxtx.c **** 	rssi_max = (v > rssi_max) ? v : rssi_max;
 1078              		.loc 1 208 0
 1079 000a 144B     		ldr	r3, .L5
 1080 000c 1B78     		ldrb	r3, [r3]	@ zero_extendqisi2
 1081 000e 5AB2     		sxtb	r2, r3
 1082 0010 97F90730 		ldrsb	r3, [r7, #7]
 1083 0014 9342     		cmp	r3, r2
 1084 0016 B8BF     		it	lt
 1085 0018 1346     		movlt	r3, r2
 1086 001a DAB2     		uxtb	r2, r3
 1087 001c 0F4B     		ldr	r3, .L5
 1088 001e 1A70     		strb	r2, [r3]
 209:bluetooth_rxtx.c **** 	rssi_min = (v < rssi_min) ? v : rssi_min;
 1089              		.loc 1 209 0
 1090 0020 0F4B     		ldr	r3, .L5+4
 1091 0022 1B78     		ldrb	r3, [r3]	@ zero_extendqisi2
 1092 0024 5AB2     		sxtb	r2, r3
 1093 0026 97F90730 		ldrsb	r3, [r7, #7]
 1094 002a 9342     		cmp	r3, r2
 1095 002c A8BF     		it	ge
 1096 002e 1346     		movge	r3, r2
 1097 0030 DAB2     		uxtb	r2, r3
 1098 0032 0B4B     		ldr	r3, .L5+4
 1099 0034 1A70     		strb	r2, [r3]
 210:bluetooth_rxtx.c **** 	rssi_sum += ((int32_t)v * 256);  // scaled int math (x256)
 1100              		.loc 1 210 0
 1101 0036 97F90730 		ldrsb	r3, [r7, #7]
 1102 003a 1A02     		lsls	r2, r3, #8
 1103 003c 094B     		ldr	r3, .L5+8
 1104 003e 1B68     		ldr	r3, [r3]
 1105 0040 1344     		add	r3, r3, r2
 1106 0042 084A     		ldr	r2, .L5+8
 1107 0044 1360     		str	r3, [r2]
ARM GAS  /tmp/ccHz27EZ.s 			page 23


 211:bluetooth_rxtx.c **** 	rssi_count += 1;
 1108              		.loc 1 211 0
 1109 0046 084B     		ldr	r3, .L5+12
 1110 0048 1B78     		ldrb	r3, [r3]	@ zero_extendqisi2
 1111 004a 0133     		adds	r3, r3, #1
 1112 004c DAB2     		uxtb	r2, r3
 1113 004e 064B     		ldr	r3, .L5+12
 1114 0050 1A70     		strb	r2, [r3]
 212:bluetooth_rxtx.c **** }
 1115              		.loc 1 212 0
 1116 0052 0C37     		adds	r7, r7, #12
 1117              		.cfi_def_cfa_offset 4
 1118 0054 BD46     		mov	sp, r7
 1119              		.cfi_def_cfa_register 13
 1120              		@ sp needed
 1121 0056 5DF8047B 		ldr	r7, [sp], #4
 1122              		.cfi_restore 7
 1123              		.cfi_def_cfa_offset 0
 1124 005a 7047     		bx	lr
 1125              	.L6:
 1126              		.align	2
 1127              	.L5:
 1128 005c 00000000 		.word	rssi_max
 1129 0060 00000000 		.word	rssi_min
 1130 0064 00000000 		.word	rssi_sum
 1131 0068 00000000 		.word	rssi_count
 1132              		.cfi_endproc
 1133              	.LFE1:
 1135              		.section	.text.rssi_add_pkt,"ax",%progbits
 1136              		.align	2
 1137              		.thumb
 1138              		.thumb_func
 1140              	rssi_add_pkt:
 1141              	.LFB2:
 213:bluetooth_rxtx.c **** 
 214:bluetooth_rxtx.c **** //gjlee
 215:bluetooth_rxtx.c **** static void rssi_add_pkt(int8_t v)
 216:bluetooth_rxtx.c **** {
 1142              		.loc 1 216 0
 1143              		.cfi_startproc
 1144              		@ args = 0, pretend = 0, frame = 8
 1145              		@ frame_needed = 1, uses_anonymous_args = 0
 1146              		@ link register save eliminated.
 1147 0000 80B4     		push	{r7}
 1148              		.cfi_def_cfa_offset 4
 1149              		.cfi_offset 7, -4
 1150 0002 83B0     		sub	sp, sp, #12
 1151              		.cfi_def_cfa_offset 16
 1152 0004 00AF     		add	r7, sp, #0
 1153              		.cfi_def_cfa_register 7
 1154 0006 0346     		mov	r3, r0
 1155 0008 FB71     		strb	r3, [r7, #7]
 217:bluetooth_rxtx.c **** 	rssi_max = (v > rssi_max) ? v : rssi_max;
 1156              		.loc 1 217 0
 1157 000a 294B     		ldr	r3, .L9
 1158 000c 1B78     		ldrb	r3, [r3]	@ zero_extendqisi2
 1159 000e 5AB2     		sxtb	r2, r3
ARM GAS  /tmp/ccHz27EZ.s 			page 24


 1160 0010 97F90730 		ldrsb	r3, [r7, #7]
 1161 0014 9342     		cmp	r3, r2
 1162 0016 B8BF     		it	lt
 1163 0018 1346     		movlt	r3, r2
 1164 001a DAB2     		uxtb	r2, r3
 1165 001c 244B     		ldr	r3, .L9
 1166 001e 1A70     		strb	r2, [r3]
 218:bluetooth_rxtx.c **** 	rssi_min = (v < rssi_min) ? v : rssi_min;
 1167              		.loc 1 218 0
 1168 0020 244B     		ldr	r3, .L9+4
 1169 0022 1B78     		ldrb	r3, [r3]	@ zero_extendqisi2
 1170 0024 5AB2     		sxtb	r2, r3
 1171 0026 97F90730 		ldrsb	r3, [r7, #7]
 1172 002a 9342     		cmp	r3, r2
 1173 002c A8BF     		it	ge
 1174 002e 1346     		movge	r3, r2
 1175 0030 DAB2     		uxtb	r2, r3
 1176 0032 204B     		ldr	r3, .L9+4
 1177 0034 1A70     		strb	r2, [r3]
 219:bluetooth_rxtx.c **** 	rssi_sum += ((int32_t)v * 256);  // scaled int math (x256)
 1178              		.loc 1 219 0
 1179 0036 97F90730 		ldrsb	r3, [r7, #7]
 1180 003a 1A02     		lsls	r2, r3, #8
 1181 003c 1E4B     		ldr	r3, .L9+8
 1182 003e 1B68     		ldr	r3, [r3]
 1183 0040 1344     		add	r3, r3, r2
 1184 0042 1D4A     		ldr	r2, .L9+8
 1185 0044 1360     		str	r3, [r2]
 220:bluetooth_rxtx.c **** 	if(rssi_count < 9){
 1186              		.loc 1 220 0
 1187 0046 1D4B     		ldr	r3, .L9+12
 1188 0048 1B78     		ldrb	r3, [r3]	@ zero_extendqisi2
 1189 004a 082B     		cmp	r3, #8
 1190 004c 24D8     		bhi	.L8
 221:bluetooth_rxtx.c **** 		rssi_sample[rssi_count].rssi = v;
 1191              		.loc 1 221 0
 1192 004e 1B4B     		ldr	r3, .L9+12
 1193 0050 1B78     		ldrb	r3, [r3]	@ zero_extendqisi2
 1194 0052 1A46     		mov	r2, r3
 1195 0054 F979     		ldrb	r1, [r7, #7]	@ zero_extendqisi2
 1196 0056 1A4B     		ldr	r3, .L9+16
 1197 0058 03F83210 		strb	r1, [r3, r2, lsl #3]
 222:bluetooth_rxtx.c **** 		rssi_sample[rssi_count].clkn_high = (clkn >> 20) & 0xff;
 1198              		.loc 1 222 0
 1199 005c 174B     		ldr	r3, .L9+12
 1200 005e 1B78     		ldrb	r3, [r3]	@ zero_extendqisi2
 1201 0060 1846     		mov	r0, r3
 1202 0062 184B     		ldr	r3, .L9+20
 1203 0064 1B68     		ldr	r3, [r3]
 1204 0066 1B0D     		lsrs	r3, r3, #20
 1205 0068 D9B2     		uxtb	r1, r3
 1206 006a 154A     		ldr	r2, .L9+16
 1207 006c C300     		lsls	r3, r0, #3
 1208 006e 1344     		add	r3, r3, r2
 1209 0070 0A46     		mov	r2, r1
 1210 0072 5A70     		strb	r2, [r3, #1]
 223:bluetooth_rxtx.c **** 		rssi_sample[rssi_count].clk100ns = CLK100NS;
ARM GAS  /tmp/ccHz27EZ.s 			page 25


 1211              		.loc 1 223 0
 1212 0074 114B     		ldr	r3, .L9+12
 1213 0076 1B78     		ldrb	r3, [r3]	@ zero_extendqisi2
 1214 0078 1846     		mov	r0, r3
 1215 007a 124B     		ldr	r3, .L9+20
 1216 007c 1B68     		ldr	r3, [r3]
 1217 007e C3F31303 		ubfx	r3, r3, #0, #20
 1218 0082 40F63542 		movw	r2, #3125
 1219 0086 02FB03F2 		mul	r2, r2, r3
 1220 008a 0F4B     		ldr	r3, .L9+24
 1221 008c 1B68     		ldr	r3, [r3]
 1222 008e 1A44     		add	r2, r2, r3
 1223 0090 0B49     		ldr	r1, .L9+16
 1224 0092 C300     		lsls	r3, r0, #3
 1225 0094 0B44     		add	r3, r3, r1
 1226 0096 5A60     		str	r2, [r3, #4]
 1227              	.L8:
 224:bluetooth_rxtx.c **** 	}
 225:bluetooth_rxtx.c **** 	rssi_count += 1;
 1228              		.loc 1 225 0
 1229 0098 084B     		ldr	r3, .L9+12
 1230 009a 1B78     		ldrb	r3, [r3]	@ zero_extendqisi2
 1231 009c 0133     		adds	r3, r3, #1
 1232 009e DAB2     		uxtb	r2, r3
 1233 00a0 064B     		ldr	r3, .L9+12
 1234 00a2 1A70     		strb	r2, [r3]
 226:bluetooth_rxtx.c **** }
 1235              		.loc 1 226 0
 1236 00a4 0C37     		adds	r7, r7, #12
 1237              		.cfi_def_cfa_offset 4
 1238 00a6 BD46     		mov	sp, r7
 1239              		.cfi_def_cfa_register 13
 1240              		@ sp needed
 1241 00a8 5DF8047B 		ldr	r7, [sp], #4
 1242              		.cfi_restore 7
 1243              		.cfi_def_cfa_offset 0
 1244 00ac 7047     		bx	lr
 1245              	.L10:
 1246 00ae 00BF     		.align	2
 1247              	.L9:
 1248 00b0 00000000 		.word	rssi_max
 1249 00b4 00000000 		.word	rssi_min
 1250 00b8 00000000 		.word	rssi_sum
 1251 00bc 00000000 		.word	rssi_count
 1252 00c0 00000000 		.word	rssi_sample
 1253 00c4 00000000 		.word	clkn
 1254 00c8 08400040 		.word	1073758216
 1255              		.cfi_endproc
 1256              	.LFE2:
 1258              		.section	.text.rssi_update_pkt,"ax",%progbits
 1259              		.align	2
 1260              		.thumb
 1261              		.thumb_func
 1263              	rssi_update_pkt:
 1264              	.LFB3:
 227:bluetooth_rxtx.c **** 
 228:bluetooth_rxtx.c **** //gjlee
ARM GAS  /tmp/ccHz27EZ.s 			page 26


 229:bluetooth_rxtx.c **** static void rssi_update_pkt(void)
 230:bluetooth_rxtx.c **** {
 1265              		.loc 1 230 0
 1266              		.cfi_startproc
 1267              		@ args = 0, pretend = 0, frame = 8
 1268              		@ frame_needed = 1, uses_anonymous_args = 0
 1269              		@ link register save eliminated.
 1270 0000 80B4     		push	{r7}
 1271              		.cfi_def_cfa_offset 4
 1272              		.cfi_offset 7, -4
 1273 0002 83B0     		sub	sp, sp, #12
 1274              		.cfi_def_cfa_offset 16
 1275 0004 00AF     		add	r7, sp, #0
 1276              		.cfi_def_cfa_register 7
 231:bluetooth_rxtx.c **** 	int i, j;
 232:bluetooth_rxtx.c **** 	int32_t avg;
 233:bluetooth_rxtx.c **** 	if (rssi_count != 0)
 1277              		.loc 1 233 0
 1278 0006 0D4B     		ldr	r3, .L14
 1279 0008 1B78     		ldrb	r3, [r3]	@ zero_extendqisi2
 1280 000a 002B     		cmp	r3, #0
 1281 000c 07D0     		beq	.L12
 234:bluetooth_rxtx.c **** 		avg = (rssi_sum  + 128) / rssi_count;
 1282              		.loc 1 234 0
 1283 000e 0C4B     		ldr	r3, .L14+4
 1284 0010 1B68     		ldr	r3, [r3]
 1285 0012 8033     		adds	r3, r3, #128
 1286 0014 094A     		ldr	r2, .L14
 1287 0016 1278     		ldrb	r2, [r2]	@ zero_extendqisi2
 1288 0018 93FBF2F3 		sdiv	r3, r3, r2
 1289 001c 7B60     		str	r3, [r7, #4]
 1290              	.L12:
 235:bluetooth_rxtx.c **** 	rssi_avg = (int8_t)((avg + 128) / 256);
 1291              		.loc 1 235 0
 1292 001e 7B68     		ldr	r3, [r7, #4]
 1293 0020 8033     		adds	r3, r3, #128
 1294 0022 002B     		cmp	r3, #0
 1295 0024 00DA     		bge	.L13
 1296 0026 FF33     		adds	r3, r3, #255
 1297              	.L13:
 1298 0028 1B12     		asrs	r3, r3, #8
 1299 002a DAB2     		uxtb	r2, r3
 1300 002c 054B     		ldr	r3, .L14+8
 1301 002e 1A70     		strb	r2, [r3]
 236:bluetooth_rxtx.c **** }
 1302              		.loc 1 236 0
 1303 0030 0C37     		adds	r7, r7, #12
 1304              		.cfi_def_cfa_offset 4
 1305 0032 BD46     		mov	sp, r7
 1306              		.cfi_def_cfa_register 13
 1307              		@ sp needed
 1308 0034 5DF8047B 		ldr	r7, [sp], #4
 1309              		.cfi_restore 7
 1310              		.cfi_def_cfa_offset 0
 1311 0038 7047     		bx	lr
 1312              	.L15:
 1313 003a 00BF     		.align	2
ARM GAS  /tmp/ccHz27EZ.s 			page 27


 1314              	.L14:
 1315 003c 00000000 		.word	rssi_count
 1316 0040 00000000 		.word	rssi_sum
 1317 0044 00000000 		.word	rssi_avg
 1318              		.cfi_endproc
 1319              	.LFE3:
 1321              		.section	.text.rssi_iir_update,"ax",%progbits
 1322              		.align	2
 1323              		.thumb
 1324              		.thumb_func
 1326              	rssi_iir_update:
 1327              	.LFB4:
 237:bluetooth_rxtx.c **** 
 238:bluetooth_rxtx.c **** /* For sweep mode, update IIR per channel. Otherwise, use single value. */
 239:bluetooth_rxtx.c **** static void rssi_iir_update(void)
 240:bluetooth_rxtx.c **** {
 1328              		.loc 1 240 0
 1329              		.cfi_startproc
 1330              		@ args = 0, pretend = 0, frame = 16
 1331              		@ frame_needed = 1, uses_anonymous_args = 0
 1332              		@ link register save eliminated.
 1333 0000 80B4     		push	{r7}
 1334              		.cfi_def_cfa_offset 4
 1335              		.cfi_offset 7, -4
 1336 0002 85B0     		sub	sp, sp, #20
 1337              		.cfi_def_cfa_offset 24
 1338 0004 00AF     		add	r7, sp, #0
 1339              		.cfi_def_cfa_register 7
 241:bluetooth_rxtx.c **** 	int i;
 242:bluetooth_rxtx.c **** 	int32_t avg;
 243:bluetooth_rxtx.c **** 	int32_t rssi_iir_acc;
 244:bluetooth_rxtx.c **** 
 245:bluetooth_rxtx.c **** 	/* Use array to track 79 Bluetooth channels, or just first
 246:bluetooth_rxtx.c **** 	 * slot of array if not sweeping. */
 247:bluetooth_rxtx.c **** 	if (hop_mode > 0)
 1340              		.loc 1 247 0
 1341 0006 1F4B     		ldr	r3, .L22
 1342 0008 1B78     		ldrb	r3, [r3]	@ zero_extendqisi2
 1343 000a 002B     		cmp	r3, #0
 1344 000c 06D0     		beq	.L17
 248:bluetooth_rxtx.c **** 		i = channel - 2402;
 1345              		.loc 1 248 0
 1346 000e 1E4B     		ldr	r3, .L22+4
 1347 0010 1B88     		ldrh	r3, [r3]	@ movhi
 1348 0012 9BB2     		uxth	r3, r3
 1349 0014 A3F66213 		subw	r3, r3, #2402
 1350 0018 FB60     		str	r3, [r7, #12]
 1351 001a 01E0     		b	.L18
 1352              	.L17:
 249:bluetooth_rxtx.c **** 	else
 250:bluetooth_rxtx.c **** 		i = 0;
 1353              		.loc 1 250 0
 1354 001c 0023     		movs	r3, #0
 1355 001e FB60     		str	r3, [r7, #12]
 1356              	.L18:
 251:bluetooth_rxtx.c **** 
 252:bluetooth_rxtx.c **** 	// IIR using scaled int math (x256)
ARM GAS  /tmp/ccHz27EZ.s 			page 28


 253:bluetooth_rxtx.c **** 	if (rssi_count != 0)
 1357              		.loc 1 253 0
 1358 0020 1A4B     		ldr	r3, .L22+8
 1359 0022 1B78     		ldrb	r3, [r3]	@ zero_extendqisi2
 1360 0024 002B     		cmp	r3, #0
 1361 0026 08D0     		beq	.L19
 254:bluetooth_rxtx.c **** 		avg = (rssi_sum  + 128) / rssi_count;
 1362              		.loc 1 254 0
 1363 0028 194B     		ldr	r3, .L22+12
 1364 002a 1B68     		ldr	r3, [r3]
 1365 002c 8033     		adds	r3, r3, #128
 1366 002e 174A     		ldr	r2, .L22+8
 1367 0030 1278     		ldrb	r2, [r2]	@ zero_extendqisi2
 1368 0032 93FBF2F3 		sdiv	r3, r3, r2
 1369 0036 BB60     		str	r3, [r7, #8]
 1370 0038 01E0     		b	.L20
 1371              	.L19:
 255:bluetooth_rxtx.c **** 	else
 256:bluetooth_rxtx.c **** 		avg = 0; // really an error
 1372              		.loc 1 256 0
 1373 003a 0023     		movs	r3, #0
 1374 003c BB60     		str	r3, [r7, #8]
 1375              	.L20:
 257:bluetooth_rxtx.c **** 	rssi_iir_acc = rssi_iir[i] * (256-RSSI_IIR_ALPHA);
 1376              		.loc 1 257 0
 1377 003e 154A     		ldr	r2, .L22+16
 1378 0040 FB68     		ldr	r3, [r7, #12]
 1379 0042 32F81330 		ldrh	r3, [r2, r3, lsl #1]
 1380 0046 1AB2     		sxth	r2, r3
 1381 0048 1346     		mov	r3, r2
 1382 004a 9B01     		lsls	r3, r3, #6
 1383 004c 9B1A     		subs	r3, r3, r2
 1384 004e 9B00     		lsls	r3, r3, #2
 1385 0050 1344     		add	r3, r3, r2
 1386 0052 7B60     		str	r3, [r7, #4]
 258:bluetooth_rxtx.c **** 	rssi_iir_acc += avg * RSSI_IIR_ALPHA;
 1387              		.loc 1 258 0
 1388 0054 BA68     		ldr	r2, [r7, #8]
 1389 0056 1346     		mov	r3, r2
 1390 0058 5B00     		lsls	r3, r3, #1
 1391 005a 1344     		add	r3, r3, r2
 1392 005c 7A68     		ldr	r2, [r7, #4]
 1393 005e 1344     		add	r3, r3, r2
 1394 0060 7B60     		str	r3, [r7, #4]
 259:bluetooth_rxtx.c **** 	rssi_iir[i] = (int16_t)((rssi_iir_acc + 128) / 256);
 1395              		.loc 1 259 0
 1396 0062 7B68     		ldr	r3, [r7, #4]
 1397 0064 8033     		adds	r3, r3, #128
 1398 0066 002B     		cmp	r3, #0
 1399 0068 00DA     		bge	.L21
 1400 006a FF33     		adds	r3, r3, #255
 1401              	.L21:
 1402 006c 1B12     		asrs	r3, r3, #8
 1403 006e 99B2     		uxth	r1, r3
 1404 0070 084A     		ldr	r2, .L22+16
 1405 0072 FB68     		ldr	r3, [r7, #12]
 1406 0074 22F81310 		strh	r1, [r2, r3, lsl #1]	@ movhi
ARM GAS  /tmp/ccHz27EZ.s 			page 29


 260:bluetooth_rxtx.c **** }
 1407              		.loc 1 260 0
 1408 0078 1437     		adds	r7, r7, #20
 1409              		.cfi_def_cfa_offset 4
 1410 007a BD46     		mov	sp, r7
 1411              		.cfi_def_cfa_register 13
 1412              		@ sp needed
 1413 007c 5DF8047B 		ldr	r7, [sp], #4
 1414              		.cfi_restore 7
 1415              		.cfi_def_cfa_offset 0
 1416 0080 7047     		bx	lr
 1417              	.L23:
 1418 0082 00BF     		.align	2
 1419              	.L22:
 1420 0084 00000000 		.word	hop_mode
 1421 0088 00000000 		.word	channel
 1422 008c 00000000 		.word	rssi_count
 1423 0090 00000000 		.word	rssi_sum
 1424 0094 00000000 		.word	rssi_iir
 1425              		.cfi_endproc
 1426              	.LFE4:
 1428              		.section	.text.cs_threshold_set,"ax",%progbits
 1429              		.align	2
 1430              		.thumb
 1431              		.thumb_func
 1433              	cs_threshold_set:
 1434              	.LFB5:
 261:bluetooth_rxtx.c **** 
 262:bluetooth_rxtx.c **** #define CS_SAMPLES_1 1
 263:bluetooth_rxtx.c **** #define CS_SAMPLES_2 2
 264:bluetooth_rxtx.c **** #define CS_SAMPLES_4 3
 265:bluetooth_rxtx.c **** #define CS_SAMPLES_8 4
 266:bluetooth_rxtx.c **** /* Set CC2400 carrier sense threshold and store value to
 267:bluetooth_rxtx.c ****  * global. CC2400 RSSI is determined by 54dBm + level. CS threshold is
 268:bluetooth_rxtx.c ****  * in 4dBm steps, so the provided level is rounded to the nearest
 269:bluetooth_rxtx.c ****  * multiple of 4 by adding 56. Useful range is -100 to -20. */
 270:bluetooth_rxtx.c **** static void cs_threshold_set(int8_t level, u8 samples)
 271:bluetooth_rxtx.c **** {
 1435              		.loc 1 271 0
 1436              		.cfi_startproc
 1437              		@ args = 0, pretend = 0, frame = 8
 1438              		@ frame_needed = 1, uses_anonymous_args = 0
 1439 0000 80B5     		push	{r7, lr}
 1440              		.cfi_def_cfa_offset 8
 1441              		.cfi_offset 7, -8
 1442              		.cfi_offset 14, -4
 1443 0002 82B0     		sub	sp, sp, #8
 1444              		.cfi_def_cfa_offset 16
 1445 0004 00AF     		add	r7, sp, #0
 1446              		.cfi_def_cfa_register 7
 1447 0006 0346     		mov	r3, r0
 1448 0008 0A46     		mov	r2, r1
 1449 000a FB71     		strb	r3, [r7, #7]
 1450 000c 1346     		mov	r3, r2
 1451 000e BB71     		strb	r3, [r7, #6]
 272:bluetooth_rxtx.c **** 	level = MIN(MAX(level,-120),(-20));
 1452              		.loc 1 272 0
ARM GAS  /tmp/ccHz27EZ.s 			page 30


 1453 0010 97F90730 		ldrsb	r3, [r7, #7]
 1454 0014 13F1140F 		cmn	r3, #20
 1455 0018 0DD0     		beq	.L25
 1456              		.loc 1 272 0 is_stmt 0 discriminator 1
 1457 001a 97F90730 		ldrsb	r3, [r7, #7]
 1458 001e 13F1130F 		cmn	r3, #19
 1459 0022 08DA     		bge	.L25
 1460              		.loc 1 272 0 discriminator 3
 1461 0024 97F90730 		ldrsb	r3, [r7, #7]
 1462 0028 6FF07702 		mvn	r2, #119
 1463 002c 9342     		cmp	r3, r2
 1464 002e B8BF     		it	lt
 1465 0030 1346     		movlt	r3, r2
 1466 0032 DBB2     		uxtb	r3, r3
 1467 0034 00E0     		b	.L26
 1468              	.L25:
 1469              		.loc 1 272 0 discriminator 4
 1470 0036 EC23     		movs	r3, #236
 1471              	.L26:
 1472              		.loc 1 272 0 discriminator 6
 1473 0038 FB71     		strb	r3, [r7, #7]
 273:bluetooth_rxtx.c **** 	cc2400_set(RSSI, (uint8_t)((level + 56) & (0x3f << 2)) | (samples&3));
 1474              		.loc 1 273 0 is_stmt 1 discriminator 6
 1475 003a FB79     		ldrb	r3, [r7, #7]	@ zero_extendqisi2
 1476 003c 3833     		adds	r3, r3, #56
 1477 003e DBB2     		uxtb	r3, r3
 1478 0040 9BB2     		uxth	r3, r3
 1479 0042 03F0FC03 		and	r3, r3, #252
 1480 0046 9AB2     		uxth	r2, r3
 1481 0048 BB79     		ldrb	r3, [r7, #6]	@ zero_extendqisi2
 1482 004a 9BB2     		uxth	r3, r3
 1483 004c 03F00303 		and	r3, r3, #3
 1484 0050 9BB2     		uxth	r3, r3
 1485 0052 1343     		orrs	r3, r3, r2
 1486 0054 9BB2     		uxth	r3, r3
 1487 0056 9BB2     		uxth	r3, r3
 1488 0058 0620     		movs	r0, #6
 1489 005a 1946     		mov	r1, r3
 1490 005c FFF7FEFF 		bl	cc2400_set
 274:bluetooth_rxtx.c **** 	cs_threshold_cur = level;
 1491              		.loc 1 274 0 discriminator 6
 1492 0060 084A     		ldr	r2, .L27
 1493 0062 FB79     		ldrb	r3, [r7, #7]
 1494 0064 1370     		strb	r3, [r2]
 275:bluetooth_rxtx.c **** 	cs_no_squelch = (level <= -120);
 1495              		.loc 1 275 0 discriminator 6
 1496 0066 97F90730 		ldrsb	r3, [r7, #7]
 1497 006a 13F1770F 		cmn	r3, #119
 1498 006e B4BF     		ite	lt
 1499 0070 0123     		movlt	r3, #1
 1500 0072 0023     		movge	r3, #0
 1501 0074 DBB2     		uxtb	r3, r3
 1502 0076 1A46     		mov	r2, r3
 1503 0078 034B     		ldr	r3, .L27+4
 1504 007a 1A70     		strb	r2, [r3]
 276:bluetooth_rxtx.c **** }
 1505              		.loc 1 276 0 discriminator 6
ARM GAS  /tmp/ccHz27EZ.s 			page 31


 1506 007c 0837     		adds	r7, r7, #8
 1507              		.cfi_def_cfa_offset 8
 1508 007e BD46     		mov	sp, r7
 1509              		.cfi_def_cfa_register 13
 1510              		@ sp needed
 1511 0080 80BD     		pop	{r7, pc}
 1512              	.L28:
 1513 0082 00BF     		.align	2
 1514              	.L27:
 1515 0084 00000000 		.word	cs_threshold_cur
 1516 0088 00000000 		.word	cs_no_squelch
 1517              		.cfi_endproc
 1518              	.LFE5:
 1520              		.section	.text.enqueue_rssi,"ax",%progbits
 1521              		.align	2
 1522              		.thumb
 1523              		.thumb_func
 1525              	enqueue_rssi:
 1526              	.LFB6:
 277:bluetooth_rxtx.c **** 
 278:bluetooth_rxtx.c **** static int enqueue_rssi()
 279:bluetooth_rxtx.c **** {
 1527              		.loc 1 279 0
 1528              		.cfi_startproc
 1529              		@ args = 0, pretend = 0, frame = 8
 1530              		@ frame_needed = 1, uses_anonymous_args = 0
 1531 0000 80B5     		push	{r7, lr}
 1532              		.cfi_def_cfa_offset 8
 1533              		.cfi_offset 7, -8
 1534              		.cfi_offset 14, -4
 1535 0002 82B0     		sub	sp, sp, #8
 1536              		.cfi_def_cfa_offset 16
 1537 0004 00AF     		add	r7, sp, #0
 1538              		.cfi_def_cfa_register 7
 280:bluetooth_rxtx.c **** 	usb_pkt_rx *f = usb_enqueue();
 1539              		.loc 1 280 0
 1540 0006 FFF7FEFF 		bl	usb_enqueue
 1541 000a 7860     		str	r0, [r7, #4]
 281:bluetooth_rxtx.c **** 
 282:bluetooth_rxtx.c **** 	/* fail if queue is full */
 283:bluetooth_rxtx.c **** 	if (f == NULL) {
 1542              		.loc 1 283 0
 1543 000c 7B68     		ldr	r3, [r7, #4]
 1544 000e 002B     		cmp	r3, #0
 1545 0010 09D1     		bne	.L30
 284:bluetooth_rxtx.c **** 		status |= FIFO_OVERFLOW;
 1546              		.loc 1 284 0
 1547 0012 404B     		ldr	r3, .L32
 1548 0014 1B78     		ldrb	r3, [r3]
 1549 0016 DBB2     		uxtb	r3, r3
 1550 0018 43F00403 		orr	r3, r3, #4
 1551 001c DAB2     		uxtb	r2, r3
 1552 001e 3D4B     		ldr	r3, .L32
 1553 0020 1A70     		strb	r2, [r3]
 285:bluetooth_rxtx.c **** 		return 0;
 1554              		.loc 1 285 0
 1555 0022 0023     		movs	r3, #0
ARM GAS  /tmp/ccHz27EZ.s 			page 32


 1556 0024 72E0     		b	.L31
 1557              	.L30:
 286:bluetooth_rxtx.c **** 	}
 287:bluetooth_rxtx.c **** 
 288:bluetooth_rxtx.c **** 	usb_pkt_rssi *fr = (usb_pkt_rssi *) f;
 1558              		.loc 1 288 0
 1559 0026 7B68     		ldr	r3, [r7, #4]
 1560 0028 3B60     		str	r3, [r7]
 289:bluetooth_rxtx.c **** 
 290:bluetooth_rxtx.c **** 	fr->pkt_type = RSSI_PACKET;
 1561              		.loc 1 290 0
 1562 002a 3B68     		ldr	r3, [r7]
 1563 002c 0722     		movs	r2, #7
 1564 002e 1A70     		strb	r2, [r3]
 291:bluetooth_rxtx.c **** 	fr->channel = channel - 2402;
 1565              		.loc 1 291 0
 1566 0030 394B     		ldr	r3, .L32+4
 1567 0032 1B88     		ldrh	r3, [r3]	@ movhi
 1568 0034 9BB2     		uxth	r3, r3
 1569 0036 DBB2     		uxtb	r3, r3
 1570 0038 623B     		subs	r3, r3, #98
 1571 003a DAB2     		uxtb	r2, r3
 1572 003c 3B68     		ldr	r3, [r7]
 1573 003e 9A70     		strb	r2, [r3, #2]
 292:bluetooth_rxtx.c **** 	fr->rssi_max = rssi_max;
 1574              		.loc 1 292 0
 1575 0040 364B     		ldr	r3, .L32+8
 1576 0042 1B78     		ldrb	r3, [r3]	@ zero_extendqisi2
 1577 0044 DAB2     		uxtb	r2, r3
 1578 0046 3B68     		ldr	r3, [r7]
 1579 0048 DA70     		strb	r2, [r3, #3]
 293:bluetooth_rxtx.c **** 	fr->rssi_min = rssi_min;
 1580              		.loc 1 293 0
 1581 004a 354B     		ldr	r3, .L32+12
 1582 004c 1B78     		ldrb	r3, [r3]	@ zero_extendqisi2
 1583 004e DAB2     		uxtb	r2, r3
 1584 0050 3B68     		ldr	r3, [r7]
 1585 0052 1A71     		strb	r2, [r3, #4]
 294:bluetooth_rxtx.c **** 	fr->rssi_avg = rssi_avg;
 1586              		.loc 1 294 0
 1587 0054 334B     		ldr	r3, .L32+16
 1588 0056 1B78     		ldrb	r3, [r3]	@ zero_extendqisi2
 1589 0058 DAB2     		uxtb	r2, r3
 1590 005a 3B68     		ldr	r3, [r7]
 1591 005c 5A71     		strb	r2, [r3, #5]
 295:bluetooth_rxtx.c **** 	fr->rssi_count = rssi_count;
 1592              		.loc 1 295 0
 1593 005e 324B     		ldr	r3, .L32+20
 1594 0060 1A78     		ldrb	r2, [r3]	@ zero_extendqisi2
 1595 0062 3B68     		ldr	r3, [r7]
 1596 0064 9A71     		strb	r2, [r3, #6]
 296:bluetooth_rxtx.c **** 	
 297:bluetooth_rxtx.c **** 	USRLED_SET;
 1597              		.loc 1 297 0
 1598 0066 314B     		ldr	r3, .L32+24
 1599 0068 0222     		movs	r2, #2
 1600 006a 1A60     		str	r2, [r3]
ARM GAS  /tmp/ccHz27EZ.s 			page 33


 298:bluetooth_rxtx.c **** 	
 299:bluetooth_rxtx.c **** 	fr->rssi_sample[0] = rssi_sample[0];
 1601              		.loc 1 299 0
 1602 006c 3B68     		ldr	r3, [r7]
 1603 006e 304A     		ldr	r2, .L32+28
 1604 0070 0833     		adds	r3, r3, #8
 1605 0072 92E80300 		ldmia	r2, {r0, r1}
 1606 0076 83E80300 		stmia	r3, {r0, r1}
 300:bluetooth_rxtx.c **** 	fr->rssi_sample[1] = rssi_sample[1];
 1607              		.loc 1 300 0
 1608 007a 3B68     		ldr	r3, [r7]
 1609 007c 2C4A     		ldr	r2, .L32+28
 1610 007e 1033     		adds	r3, r3, #16
 1611 0080 0832     		adds	r2, r2, #8
 1612 0082 92E80300 		ldmia	r2, {r0, r1}
 1613 0086 83E80300 		stmia	r3, {r0, r1}
 301:bluetooth_rxtx.c **** 	fr->rssi_sample[2] = rssi_sample[2];
 1614              		.loc 1 301 0
 1615 008a 3B68     		ldr	r3, [r7]
 1616 008c 284A     		ldr	r2, .L32+28
 1617 008e 1833     		adds	r3, r3, #24
 1618 0090 1032     		adds	r2, r2, #16
 1619 0092 92E80300 		ldmia	r2, {r0, r1}
 1620 0096 83E80300 		stmia	r3, {r0, r1}
 302:bluetooth_rxtx.c **** 	fr->rssi_sample[3] = rssi_sample[3];
 1621              		.loc 1 302 0
 1622 009a 3B68     		ldr	r3, [r7]
 1623 009c 244A     		ldr	r2, .L32+28
 1624 009e 2033     		adds	r3, r3, #32
 1625 00a0 1832     		adds	r2, r2, #24
 1626 00a2 92E80300 		ldmia	r2, {r0, r1}
 1627 00a6 83E80300 		stmia	r3, {r0, r1}
 303:bluetooth_rxtx.c **** 	fr->rssi_sample[4] = rssi_sample[4];
 1628              		.loc 1 303 0
 1629 00aa 3B68     		ldr	r3, [r7]
 1630 00ac 204A     		ldr	r2, .L32+28
 1631 00ae 2833     		adds	r3, r3, #40
 1632 00b0 2032     		adds	r2, r2, #32
 1633 00b2 92E80300 		ldmia	r2, {r0, r1}
 1634 00b6 83E80300 		stmia	r3, {r0, r1}
 304:bluetooth_rxtx.c **** 	fr->rssi_sample[5] = rssi_sample[5];
 1635              		.loc 1 304 0
 1636 00ba 3B68     		ldr	r3, [r7]
 1637 00bc 1C4A     		ldr	r2, .L32+28
 1638 00be 3033     		adds	r3, r3, #48
 1639 00c0 2832     		adds	r2, r2, #40
 1640 00c2 92E80300 		ldmia	r2, {r0, r1}
 1641 00c6 83E80300 		stmia	r3, {r0, r1}
 305:bluetooth_rxtx.c **** 	fr->rssi_sample[6] = rssi_sample[6];
 1642              		.loc 1 305 0
 1643 00ca 3B68     		ldr	r3, [r7]
 1644 00cc 184A     		ldr	r2, .L32+28
 1645 00ce 3833     		adds	r3, r3, #56
 1646 00d0 3032     		adds	r2, r2, #48
 1647 00d2 92E80300 		ldmia	r2, {r0, r1}
 1648 00d6 83E80300 		stmia	r3, {r0, r1}
 306:bluetooth_rxtx.c **** 	fr->rssi_sample[7] = rssi_sample[7];
ARM GAS  /tmp/ccHz27EZ.s 			page 34


 1649              		.loc 1 306 0
 1650 00da 3B68     		ldr	r3, [r7]
 1651 00dc 144A     		ldr	r2, .L32+28
 1652 00de 4033     		adds	r3, r3, #64
 1653 00e0 3832     		adds	r2, r2, #56
 1654 00e2 92E80300 		ldmia	r2, {r0, r1}
 1655 00e6 83E80300 		stmia	r3, {r0, r1}
 307:bluetooth_rxtx.c **** 	fr->rssi_sample[8] = rssi_sample[8];
 1656              		.loc 1 307 0
 1657 00ea 3B68     		ldr	r3, [r7]
 1658 00ec 104A     		ldr	r2, .L32+28
 1659 00ee 4833     		adds	r3, r3, #72
 1660 00f0 4032     		adds	r2, r2, #64
 1661 00f2 92E80300 		ldmia	r2, {r0, r1}
 1662 00f6 83E80300 		stmia	r3, {r0, r1}
 308:bluetooth_rxtx.c **** 
 309:bluetooth_rxtx.c **** 	fr->status = status;
 1663              		.loc 1 309 0
 1664 00fa 064B     		ldr	r3, .L32
 1665 00fc 1B78     		ldrb	r3, [r3]
 1666 00fe DAB2     		uxtb	r2, r3
 1667 0100 3B68     		ldr	r3, [r7]
 1668 0102 5A70     		strb	r2, [r3, #1]
 310:bluetooth_rxtx.c **** 	status = 0;
 1669              		.loc 1 310 0
 1670 0104 034B     		ldr	r3, .L32
 1671 0106 0022     		movs	r2, #0
 1672 0108 1A70     		strb	r2, [r3]
 311:bluetooth_rxtx.c **** 	
 312:bluetooth_rxtx.c **** 	return 1;
 1673              		.loc 1 312 0
 1674 010a 0123     		movs	r3, #1
 1675              	.L31:
 313:bluetooth_rxtx.c **** }
 1676              		.loc 1 313 0
 1677 010c 1846     		mov	r0, r3
 1678 010e 0837     		adds	r7, r7, #8
 1679              		.cfi_def_cfa_offset 8
 1680 0110 BD46     		mov	sp, r7
 1681              		.cfi_def_cfa_register 13
 1682              		@ sp needed
 1683 0112 80BD     		pop	{r7, pc}
 1684              	.L33:
 1685              		.align	2
 1686              	.L32:
 1687 0114 00000000 		.word	status
 1688 0118 00000000 		.word	channel
 1689 011c 00000000 		.word	rssi_max
 1690 0120 00000000 		.word	rssi_min
 1691 0124 00000000 		.word	rssi_avg
 1692 0128 00000000 		.word	rssi_count
 1693 012c 38C00920 		.word	537509944
 1694 0130 00000000 		.word	rssi_sample
 1695              		.cfi_endproc
 1696              	.LFE6:
 1698              		.section	.text.enqueue,"ax",%progbits
 1699              		.align	2
ARM GAS  /tmp/ccHz27EZ.s 			page 35


 1700              		.thumb
 1701              		.thumb_func
 1703              	enqueue:
 1704              	.LFB7:
 314:bluetooth_rxtx.c **** 
 315:bluetooth_rxtx.c **** static int enqueue(u8 type, u8 *buf)
 316:bluetooth_rxtx.c **** {
 1705              		.loc 1 316 0
 1706              		.cfi_startproc
 1707              		@ args = 0, pretend = 0, frame = 32
 1708              		@ frame_needed = 1, uses_anonymous_args = 0
 1709 0000 80B5     		push	{r7, lr}
 1710              		.cfi_def_cfa_offset 8
 1711              		.cfi_offset 7, -8
 1712              		.cfi_offset 14, -4
 1713 0002 88B0     		sub	sp, sp, #32
 1714              		.cfi_def_cfa_offset 40
 1715 0004 00AF     		add	r7, sp, #0
 1716              		.cfi_def_cfa_register 7
 1717 0006 0346     		mov	r3, r0
 1718 0008 3960     		str	r1, [r7]
 1719 000a FB71     		strb	r3, [r7, #7]
 317:bluetooth_rxtx.c **** 	usb_pkt_rx *f = usb_enqueue();
 1720              		.loc 1 317 0
 1721 000c FFF7FEFF 		bl	usb_enqueue
 1722 0010 F861     		str	r0, [r7, #28]
 318:bluetooth_rxtx.c **** 
 319:bluetooth_rxtx.c **** 	/* fail if queue is full */
 320:bluetooth_rxtx.c **** 	if (f == NULL) {
 1723              		.loc 1 320 0
 1724 0012 FB69     		ldr	r3, [r7, #28]
 1725 0014 002B     		cmp	r3, #0
 1726 0016 09D1     		bne	.L35
 321:bluetooth_rxtx.c **** 		status |= FIFO_OVERFLOW;
 1727              		.loc 1 321 0
 1728 0018 504B     		ldr	r3, .L39
 1729 001a 1B78     		ldrb	r3, [r3]
 1730 001c DBB2     		uxtb	r3, r3
 1731 001e 43F00403 		orr	r3, r3, #4
 1732 0022 DAB2     		uxtb	r2, r3
 1733 0024 4D4B     		ldr	r3, .L39
 1734 0026 1A70     		strb	r2, [r3]
 322:bluetooth_rxtx.c **** 		return 0;
 1735              		.loc 1 322 0
 1736 0028 0023     		movs	r3, #0
 1737 002a 93E0     		b	.L36
 1738              	.L35:
 323:bluetooth_rxtx.c **** 	}
 324:bluetooth_rxtx.c **** 
 325:bluetooth_rxtx.c **** 	f->pkt_type = type;
 1739              		.loc 1 325 0
 1740 002c FB69     		ldr	r3, [r7, #28]
 1741 002e FA79     		ldrb	r2, [r7, #7]
 1742 0030 1A70     		strb	r2, [r3]
 326:bluetooth_rxtx.c **** 	if(type == SPECAN) {
 1743              		.loc 1 326 0
 1744 0032 FB79     		ldrb	r3, [r7, #7]	@ zero_extendqisi2
ARM GAS  /tmp/ccHz27EZ.s 			page 36


 1745 0034 042B     		cmp	r3, #4
 1746 0036 13D1     		bne	.L37
 327:bluetooth_rxtx.c **** 		f->clkn_high = (clkn >> 20) & 0xff;
 1747              		.loc 1 327 0
 1748 0038 494B     		ldr	r3, .L39+4
 1749 003a 1B68     		ldr	r3, [r3]
 1750 003c 1B0D     		lsrs	r3, r3, #20
 1751 003e DAB2     		uxtb	r2, r3
 1752 0040 FB69     		ldr	r3, [r7, #28]
 1753 0042 DA70     		strb	r2, [r3, #3]
 328:bluetooth_rxtx.c **** 		f->clk100ns = CLK100NS;
 1754              		.loc 1 328 0
 1755 0044 464B     		ldr	r3, .L39+4
 1756 0046 1B68     		ldr	r3, [r3]
 1757 0048 C3F31303 		ubfx	r3, r3, #0, #20
 1758 004c 40F63542 		movw	r2, #3125
 1759 0050 02FB03F2 		mul	r2, r2, r3
 1760 0054 434B     		ldr	r3, .L39+8
 1761 0056 1B68     		ldr	r3, [r3]
 1762 0058 1A44     		add	r2, r2, r3
 1763 005a FB69     		ldr	r3, [r7, #28]
 1764 005c 5A60     		str	r2, [r3, #4]
 1765 005e 08E0     		b	.L38
 1766              	.L37:
 329:bluetooth_rxtx.c **** 	} else {
 330:bluetooth_rxtx.c **** 		f->clkn_high = idle_buf_clkn_high;
 1767              		.loc 1 330 0
 1768 0060 414B     		ldr	r3, .L39+12
 1769 0062 1B68     		ldr	r3, [r3]
 1770 0064 DAB2     		uxtb	r2, r3
 1771 0066 FB69     		ldr	r3, [r7, #28]
 1772 0068 DA70     		strb	r2, [r3, #3]
 331:bluetooth_rxtx.c **** 		f->clk100ns = idle_buf_clk100ns;
 1773              		.loc 1 331 0
 1774 006a 404B     		ldr	r3, .L39+16
 1775 006c 1A68     		ldr	r2, [r3]
 1776 006e FB69     		ldr	r3, [r7, #28]
 1777 0070 5A60     		str	r2, [r3, #4]
 1778              	.L38:
 332:bluetooth_rxtx.c **** 	}
 333:bluetooth_rxtx.c **** 	f->channel = idle_buf_channel - 2402;
 1779              		.loc 1 333 0
 1780 0072 3F4B     		ldr	r3, .L39+20
 1781 0074 1B88     		ldrh	r3, [r3]	@ movhi
 1782 0076 9BB2     		uxth	r3, r3
 1783 0078 DBB2     		uxtb	r3, r3
 1784 007a 623B     		subs	r3, r3, #98
 1785 007c DAB2     		uxtb	r2, r3
 1786 007e FB69     		ldr	r3, [r7, #28]
 1787 0080 9A70     		strb	r2, [r3, #2]
 334:bluetooth_rxtx.c **** 	f->rssi_min = rssi_min;
 1788              		.loc 1 334 0
 1789 0082 3C4B     		ldr	r3, .L39+24
 1790 0084 1B78     		ldrb	r3, [r3]	@ zero_extendqisi2
 1791 0086 DAB2     		uxtb	r2, r3
 1792 0088 FB69     		ldr	r3, [r7, #28]
 1793 008a 5A72     		strb	r2, [r3, #9]
ARM GAS  /tmp/ccHz27EZ.s 			page 37


 335:bluetooth_rxtx.c **** 	f->rssi_max = rssi_max;
 1794              		.loc 1 335 0
 1795 008c 3A4B     		ldr	r3, .L39+28
 1796 008e 1B78     		ldrb	r3, [r3]	@ zero_extendqisi2
 1797 0090 DAB2     		uxtb	r2, r3
 1798 0092 FB69     		ldr	r3, [r7, #28]
 1799 0094 1A72     		strb	r2, [r3, #8]
 336:bluetooth_rxtx.c **** 	f->rssi_avg = rssi_avg;
 1800              		.loc 1 336 0
 1801 0096 394B     		ldr	r3, .L39+32
 1802 0098 1B78     		ldrb	r3, [r3]	@ zero_extendqisi2
 1803 009a DAB2     		uxtb	r2, r3
 1804 009c FB69     		ldr	r3, [r7, #28]
 1805 009e 9A72     		strb	r2, [r3, #10]
 337:bluetooth_rxtx.c **** 	//if (hop_mode != HOP_NONE)
 338:bluetooth_rxtx.c **** 	//	f->rssi_avg = (int8_t)((rssi_iir[idle_buf_channel-2402] + 128)/256);
 339:bluetooth_rxtx.c **** 	//else
 340:bluetooth_rxtx.c **** 	//	f->rssi_avg = (int8_t)((rssi_iir[0] + 128)/256);
 341:bluetooth_rxtx.c **** 	f->rssi_count = rssi_count;
 1806              		.loc 1 341 0
 1807 00a0 374B     		ldr	r3, .L39+36
 1808 00a2 1A78     		ldrb	r2, [r3]	@ zero_extendqisi2
 1809 00a4 FB69     		ldr	r3, [r7, #28]
 1810 00a6 DA72     		strb	r2, [r3, #11]
 342:bluetooth_rxtx.c **** 
 343:bluetooth_rxtx.c **** 	USRLED_SET;
 1811              		.loc 1 343 0
 1812 00a8 364B     		ldr	r3, .L39+40
 1813 00aa 0222     		movs	r2, #2
 1814 00ac 1A60     		str	r2, [r3]
 344:bluetooth_rxtx.c **** 
 345:bluetooth_rxtx.c **** 	// Unrolled copy of 50 bytes from buf to fifo
 346:bluetooth_rxtx.c **** 	u32 *p1 = (u32 *)f->data;
 1815              		.loc 1 346 0
 1816 00ae FB69     		ldr	r3, [r7, #28]
 1817 00b0 0E33     		adds	r3, r3, #14
 1818 00b2 BB61     		str	r3, [r7, #24]
 347:bluetooth_rxtx.c **** 	u32 *p2 = (u32 *)buf;
 1819              		.loc 1 347 0
 1820 00b4 3B68     		ldr	r3, [r7]
 1821 00b6 7B61     		str	r3, [r7, #20]
 348:bluetooth_rxtx.c **** 	p1[0] = p2[0];
 1822              		.loc 1 348 0
 1823 00b8 7B69     		ldr	r3, [r7, #20]
 1824 00ba 1A68     		ldr	r2, [r3]
 1825 00bc BB69     		ldr	r3, [r7, #24]
 1826 00be 1A60     		str	r2, [r3]
 349:bluetooth_rxtx.c **** 	p1[1] = p2[1];
 1827              		.loc 1 349 0
 1828 00c0 BB69     		ldr	r3, [r7, #24]
 1829 00c2 0433     		adds	r3, r3, #4
 1830 00c4 7A69     		ldr	r2, [r7, #20]
 1831 00c6 5268     		ldr	r2, [r2, #4]
 1832 00c8 1A60     		str	r2, [r3]
 350:bluetooth_rxtx.c **** 	p1[2] = p2[2];
 1833              		.loc 1 350 0
 1834 00ca BB69     		ldr	r3, [r7, #24]
ARM GAS  /tmp/ccHz27EZ.s 			page 38


 1835 00cc 0833     		adds	r3, r3, #8
 1836 00ce 7A69     		ldr	r2, [r7, #20]
 1837 00d0 9268     		ldr	r2, [r2, #8]
 1838 00d2 1A60     		str	r2, [r3]
 351:bluetooth_rxtx.c **** 	p1[3] = p2[3];
 1839              		.loc 1 351 0
 1840 00d4 BB69     		ldr	r3, [r7, #24]
 1841 00d6 0C33     		adds	r3, r3, #12
 1842 00d8 7A69     		ldr	r2, [r7, #20]
 1843 00da D268     		ldr	r2, [r2, #12]
 1844 00dc 1A60     		str	r2, [r3]
 352:bluetooth_rxtx.c **** 	p1[4] = p2[4];
 1845              		.loc 1 352 0
 1846 00de BB69     		ldr	r3, [r7, #24]
 1847 00e0 1033     		adds	r3, r3, #16
 1848 00e2 7A69     		ldr	r2, [r7, #20]
 1849 00e4 1269     		ldr	r2, [r2, #16]
 1850 00e6 1A60     		str	r2, [r3]
 353:bluetooth_rxtx.c **** 	p1[5] = p2[5];
 1851              		.loc 1 353 0
 1852 00e8 BB69     		ldr	r3, [r7, #24]
 1853 00ea 1433     		adds	r3, r3, #20
 1854 00ec 7A69     		ldr	r2, [r7, #20]
 1855 00ee 5269     		ldr	r2, [r2, #20]
 1856 00f0 1A60     		str	r2, [r3]
 354:bluetooth_rxtx.c **** 	p1[6] = p2[6];
 1857              		.loc 1 354 0
 1858 00f2 BB69     		ldr	r3, [r7, #24]
 1859 00f4 1833     		adds	r3, r3, #24
 1860 00f6 7A69     		ldr	r2, [r7, #20]
 1861 00f8 9269     		ldr	r2, [r2, #24]
 1862 00fa 1A60     		str	r2, [r3]
 355:bluetooth_rxtx.c **** 	p1[7] = p2[7];
 1863              		.loc 1 355 0
 1864 00fc BB69     		ldr	r3, [r7, #24]
 1865 00fe 1C33     		adds	r3, r3, #28
 1866 0100 7A69     		ldr	r2, [r7, #20]
 1867 0102 D269     		ldr	r2, [r2, #28]
 1868 0104 1A60     		str	r2, [r3]
 356:bluetooth_rxtx.c **** 	p1[8] = p2[8];
 1869              		.loc 1 356 0
 1870 0106 BB69     		ldr	r3, [r7, #24]
 1871 0108 2033     		adds	r3, r3, #32
 1872 010a 7A69     		ldr	r2, [r7, #20]
 1873 010c 126A     		ldr	r2, [r2, #32]
 1874 010e 1A60     		str	r2, [r3]
 357:bluetooth_rxtx.c **** 	p1[9] = p2[9];
 1875              		.loc 1 357 0
 1876 0110 BB69     		ldr	r3, [r7, #24]
 1877 0112 2433     		adds	r3, r3, #36
 1878 0114 7A69     		ldr	r2, [r7, #20]
 1879 0116 526A     		ldr	r2, [r2, #36]
 1880 0118 1A60     		str	r2, [r3]
 358:bluetooth_rxtx.c **** 	p1[10] = p2[10];
 1881              		.loc 1 358 0
 1882 011a BB69     		ldr	r3, [r7, #24]
 1883 011c 2833     		adds	r3, r3, #40
ARM GAS  /tmp/ccHz27EZ.s 			page 39


 1884 011e 7A69     		ldr	r2, [r7, #20]
 1885 0120 926A     		ldr	r2, [r2, #40]
 1886 0122 1A60     		str	r2, [r3]
 359:bluetooth_rxtx.c **** 	p1[11] = p2[11];
 1887              		.loc 1 359 0
 1888 0124 BB69     		ldr	r3, [r7, #24]
 1889 0126 2C33     		adds	r3, r3, #44
 1890 0128 7A69     		ldr	r2, [r7, #20]
 1891 012a D26A     		ldr	r2, [r2, #44]
 1892 012c 1A60     		str	r2, [r3]
 360:bluetooth_rxtx.c **** 	/* Avoid gcc warning about strict-aliasing */
 361:bluetooth_rxtx.c **** 	u16 *p3 = (u16 *)f->data;
 1893              		.loc 1 361 0
 1894 012e FB69     		ldr	r3, [r7, #28]
 1895 0130 0E33     		adds	r3, r3, #14
 1896 0132 3B61     		str	r3, [r7, #16]
 362:bluetooth_rxtx.c **** 	u16 *p4 = (u16 *)buf;
 1897              		.loc 1 362 0
 1898 0134 3B68     		ldr	r3, [r7]
 1899 0136 FB60     		str	r3, [r7, #12]
 363:bluetooth_rxtx.c **** 	p3[24] = p4[24];
 1900              		.loc 1 363 0
 1901 0138 3B69     		ldr	r3, [r7, #16]
 1902 013a 3033     		adds	r3, r3, #48
 1903 013c FA68     		ldr	r2, [r7, #12]
 1904 013e 128E     		ldrh	r2, [r2, #48]
 1905 0140 1A80     		strh	r2, [r3]	@ movhi
 364:bluetooth_rxtx.c **** 
 365:bluetooth_rxtx.c **** 	f->status = status;
 1906              		.loc 1 365 0
 1907 0142 064B     		ldr	r3, .L39
 1908 0144 1B78     		ldrb	r3, [r3]
 1909 0146 DAB2     		uxtb	r2, r3
 1910 0148 FB69     		ldr	r3, [r7, #28]
 1911 014a 5A70     		strb	r2, [r3, #1]
 366:bluetooth_rxtx.c **** 	status = 0;
 1912              		.loc 1 366 0
 1913 014c 034B     		ldr	r3, .L39
 1914 014e 0022     		movs	r2, #0
 1915 0150 1A70     		strb	r2, [r3]
 367:bluetooth_rxtx.c **** 
 368:bluetooth_rxtx.c **** 	return 1;
 1916              		.loc 1 368 0
 1917 0152 0123     		movs	r3, #1
 1918              	.L36:
 369:bluetooth_rxtx.c **** }
 1919              		.loc 1 369 0
 1920 0154 1846     		mov	r0, r3
 1921 0156 2037     		adds	r7, r7, #32
 1922              		.cfi_def_cfa_offset 8
 1923 0158 BD46     		mov	sp, r7
 1924              		.cfi_def_cfa_register 13
 1925              		@ sp needed
 1926 015a 80BD     		pop	{r7, pc}
 1927              	.L40:
 1928              		.align	2
 1929              	.L39:
ARM GAS  /tmp/ccHz27EZ.s 			page 40


 1930 015c 00000000 		.word	status
 1931 0160 00000000 		.word	clkn
 1932 0164 08400040 		.word	1073758216
 1933 0168 00000000 		.word	idle_buf_clkn_high
 1934 016c 00000000 		.word	idle_buf_clk100ns
 1935 0170 00000000 		.word	idle_buf_channel
 1936 0174 00000000 		.word	rssi_min
 1937 0178 00000000 		.word	rssi_max
 1938 017c 00000000 		.word	rssi_avg
 1939 0180 00000000 		.word	rssi_count
 1940 0184 38C00920 		.word	537509944
 1941              		.cfi_endproc
 1942              	.LFE7:
 1944              		.section	.text.enqueue_with_ts,"ax",%progbits
 1945              		.align	2
 1946              		.global	enqueue_with_ts
 1947              		.thumb
 1948              		.thumb_func
 1950              	enqueue_with_ts:
 1951              	.LFB8:
 370:bluetooth_rxtx.c **** 
 371:bluetooth_rxtx.c **** int enqueue_with_ts(u8 type, u8 *buf, u32 ts)
 372:bluetooth_rxtx.c **** {
 1952              		.loc 1 372 0
 1953              		.cfi_startproc
 1954              		@ args = 0, pretend = 0, frame = 40
 1955              		@ frame_needed = 1, uses_anonymous_args = 0
 1956 0000 80B5     		push	{r7, lr}
 1957              		.cfi_def_cfa_offset 8
 1958              		.cfi_offset 7, -8
 1959              		.cfi_offset 14, -4
 1960 0002 8AB0     		sub	sp, sp, #40
 1961              		.cfi_def_cfa_offset 48
 1962 0004 00AF     		add	r7, sp, #0
 1963              		.cfi_def_cfa_register 7
 1964 0006 0346     		mov	r3, r0
 1965 0008 B960     		str	r1, [r7, #8]
 1966 000a 7A60     		str	r2, [r7, #4]
 1967 000c FB73     		strb	r3, [r7, #15]
 373:bluetooth_rxtx.c **** 	usb_pkt_rx *f = usb_enqueue();
 1968              		.loc 1 373 0
 1969 000e FFF7FEFF 		bl	usb_enqueue
 1970 0012 7862     		str	r0, [r7, #36]
 374:bluetooth_rxtx.c **** 
 375:bluetooth_rxtx.c **** 	/* fail if queue is full */
 376:bluetooth_rxtx.c **** 	if (f == NULL) {
 1971              		.loc 1 376 0
 1972 0014 7B6A     		ldr	r3, [r7, #36]
 1973 0016 002B     		cmp	r3, #0
 1974 0018 09D1     		bne	.L42
 377:bluetooth_rxtx.c **** 		status |= FIFO_OVERFLOW;
 1975              		.loc 1 377 0
 1976 001a 3C4B     		ldr	r3, .L44
 1977 001c 1B78     		ldrb	r3, [r3]
 1978 001e DBB2     		uxtb	r3, r3
 1979 0020 43F00403 		orr	r3, r3, #4
 1980 0024 DAB2     		uxtb	r2, r3
ARM GAS  /tmp/ccHz27EZ.s 			page 41


 1981 0026 394B     		ldr	r3, .L44
 1982 0028 1A70     		strb	r2, [r3]
 378:bluetooth_rxtx.c **** 		return 0;
 1983              		.loc 1 378 0
 1984 002a 0023     		movs	r3, #0
 1985 002c 69E0     		b	.L43
 1986              	.L42:
 379:bluetooth_rxtx.c **** 	}
 380:bluetooth_rxtx.c **** 
 381:bluetooth_rxtx.c **** 	f->clkn_high = 0;
 1987              		.loc 1 381 0
 1988 002e 7B6A     		ldr	r3, [r7, #36]
 1989 0030 0022     		movs	r2, #0
 1990 0032 DA70     		strb	r2, [r3, #3]
 382:bluetooth_rxtx.c **** 	f->clk100ns = ts;
 1991              		.loc 1 382 0
 1992 0034 7B6A     		ldr	r3, [r7, #36]
 1993 0036 7A68     		ldr	r2, [r7, #4]
 1994 0038 5A60     		str	r2, [r3, #4]
 383:bluetooth_rxtx.c **** 
 384:bluetooth_rxtx.c **** 	f->channel = channel - 2402;
 1995              		.loc 1 384 0
 1996 003a 354B     		ldr	r3, .L44+4
 1997 003c 1B88     		ldrh	r3, [r3]	@ movhi
 1998 003e 9BB2     		uxth	r3, r3
 1999 0040 DBB2     		uxtb	r3, r3
 2000 0042 623B     		subs	r3, r3, #98
 2001 0044 DAB2     		uxtb	r2, r3
 2002 0046 7B6A     		ldr	r3, [r7, #36]
 2003 0048 9A70     		strb	r2, [r3, #2]
 385:bluetooth_rxtx.c **** 	f->rssi_avg = 0;
 2004              		.loc 1 385 0
 2005 004a 7B6A     		ldr	r3, [r7, #36]
 2006 004c 0022     		movs	r2, #0
 2007 004e 9A72     		strb	r2, [r3, #10]
 386:bluetooth_rxtx.c **** 	f->rssi_count = 0;
 2008              		.loc 1 386 0
 2009 0050 7B6A     		ldr	r3, [r7, #36]
 2010 0052 0022     		movs	r2, #0
 2011 0054 DA72     		strb	r2, [r3, #11]
 387:bluetooth_rxtx.c **** 
 388:bluetooth_rxtx.c **** 	USRLED_SET;
 2012              		.loc 1 388 0
 2013 0056 2F4B     		ldr	r3, .L44+8
 2014 0058 0222     		movs	r2, #2
 2015 005a 1A60     		str	r2, [r3]
 389:bluetooth_rxtx.c **** 
 390:bluetooth_rxtx.c **** 	// Unrolled copy of 50 bytes from buf to fifo
 391:bluetooth_rxtx.c **** 	u32 *p1 = (u32 *)f->data;
 2016              		.loc 1 391 0
 2017 005c 7B6A     		ldr	r3, [r7, #36]
 2018 005e 0E33     		adds	r3, r3, #14
 2019 0060 3B62     		str	r3, [r7, #32]
 392:bluetooth_rxtx.c **** 	u32 *p2 = (u32 *)buf;
 2020              		.loc 1 392 0
 2021 0062 BB68     		ldr	r3, [r7, #8]
 2022 0064 FB61     		str	r3, [r7, #28]
ARM GAS  /tmp/ccHz27EZ.s 			page 42


 393:bluetooth_rxtx.c **** 	p1[0] = p2[0];
 2023              		.loc 1 393 0
 2024 0066 FB69     		ldr	r3, [r7, #28]
 2025 0068 1A68     		ldr	r2, [r3]
 2026 006a 3B6A     		ldr	r3, [r7, #32]
 2027 006c 1A60     		str	r2, [r3]
 394:bluetooth_rxtx.c **** 	p1[1] = p2[1];
 2028              		.loc 1 394 0
 2029 006e 3B6A     		ldr	r3, [r7, #32]
 2030 0070 0433     		adds	r3, r3, #4
 2031 0072 FA69     		ldr	r2, [r7, #28]
 2032 0074 5268     		ldr	r2, [r2, #4]
 2033 0076 1A60     		str	r2, [r3]
 395:bluetooth_rxtx.c **** 	p1[2] = p2[2];
 2034              		.loc 1 395 0
 2035 0078 3B6A     		ldr	r3, [r7, #32]
 2036 007a 0833     		adds	r3, r3, #8
 2037 007c FA69     		ldr	r2, [r7, #28]
 2038 007e 9268     		ldr	r2, [r2, #8]
 2039 0080 1A60     		str	r2, [r3]
 396:bluetooth_rxtx.c **** 	p1[3] = p2[3];
 2040              		.loc 1 396 0
 2041 0082 3B6A     		ldr	r3, [r7, #32]
 2042 0084 0C33     		adds	r3, r3, #12
 2043 0086 FA69     		ldr	r2, [r7, #28]
 2044 0088 D268     		ldr	r2, [r2, #12]
 2045 008a 1A60     		str	r2, [r3]
 397:bluetooth_rxtx.c **** 	p1[4] = p2[4];
 2046              		.loc 1 397 0
 2047 008c 3B6A     		ldr	r3, [r7, #32]
 2048 008e 1033     		adds	r3, r3, #16
 2049 0090 FA69     		ldr	r2, [r7, #28]
 2050 0092 1269     		ldr	r2, [r2, #16]
 2051 0094 1A60     		str	r2, [r3]
 398:bluetooth_rxtx.c **** 	p1[5] = p2[5];
 2052              		.loc 1 398 0
 2053 0096 3B6A     		ldr	r3, [r7, #32]
 2054 0098 1433     		adds	r3, r3, #20
 2055 009a FA69     		ldr	r2, [r7, #28]
 2056 009c 5269     		ldr	r2, [r2, #20]
 2057 009e 1A60     		str	r2, [r3]
 399:bluetooth_rxtx.c **** 	p1[6] = p2[6];
 2058              		.loc 1 399 0
 2059 00a0 3B6A     		ldr	r3, [r7, #32]
 2060 00a2 1833     		adds	r3, r3, #24
 2061 00a4 FA69     		ldr	r2, [r7, #28]
 2062 00a6 9269     		ldr	r2, [r2, #24]
 2063 00a8 1A60     		str	r2, [r3]
 400:bluetooth_rxtx.c **** 	p1[7] = p2[7];
 2064              		.loc 1 400 0
 2065 00aa 3B6A     		ldr	r3, [r7, #32]
 2066 00ac 1C33     		adds	r3, r3, #28
 2067 00ae FA69     		ldr	r2, [r7, #28]
 2068 00b0 D269     		ldr	r2, [r2, #28]
 2069 00b2 1A60     		str	r2, [r3]
 401:bluetooth_rxtx.c **** 	p1[8] = p2[8];
 2070              		.loc 1 401 0
ARM GAS  /tmp/ccHz27EZ.s 			page 43


 2071 00b4 3B6A     		ldr	r3, [r7, #32]
 2072 00b6 2033     		adds	r3, r3, #32
 2073 00b8 FA69     		ldr	r2, [r7, #28]
 2074 00ba 126A     		ldr	r2, [r2, #32]
 2075 00bc 1A60     		str	r2, [r3]
 402:bluetooth_rxtx.c **** 	p1[9] = p2[9];
 2076              		.loc 1 402 0
 2077 00be 3B6A     		ldr	r3, [r7, #32]
 2078 00c0 2433     		adds	r3, r3, #36
 2079 00c2 FA69     		ldr	r2, [r7, #28]
 2080 00c4 526A     		ldr	r2, [r2, #36]
 2081 00c6 1A60     		str	r2, [r3]
 403:bluetooth_rxtx.c **** 	p1[10] = p2[10];
 2082              		.loc 1 403 0
 2083 00c8 3B6A     		ldr	r3, [r7, #32]
 2084 00ca 2833     		adds	r3, r3, #40
 2085 00cc FA69     		ldr	r2, [r7, #28]
 2086 00ce 926A     		ldr	r2, [r2, #40]
 2087 00d0 1A60     		str	r2, [r3]
 404:bluetooth_rxtx.c **** 	p1[11] = p2[11];
 2088              		.loc 1 404 0
 2089 00d2 3B6A     		ldr	r3, [r7, #32]
 2090 00d4 2C33     		adds	r3, r3, #44
 2091 00d6 FA69     		ldr	r2, [r7, #28]
 2092 00d8 D26A     		ldr	r2, [r2, #44]
 2093 00da 1A60     		str	r2, [r3]
 405:bluetooth_rxtx.c **** 	/* Avoid gcc warning about strict-aliasing */
 406:bluetooth_rxtx.c **** 	u16 *p3 = (u16 *)f->data;
 2094              		.loc 1 406 0
 2095 00dc 7B6A     		ldr	r3, [r7, #36]
 2096 00de 0E33     		adds	r3, r3, #14
 2097 00e0 BB61     		str	r3, [r7, #24]
 407:bluetooth_rxtx.c **** 	u16 *p4 = (u16 *)buf;
 2098              		.loc 1 407 0
 2099 00e2 BB68     		ldr	r3, [r7, #8]
 2100 00e4 7B61     		str	r3, [r7, #20]
 408:bluetooth_rxtx.c **** 	p3[24] = p4[24];
 2101              		.loc 1 408 0
 2102 00e6 BB69     		ldr	r3, [r7, #24]
 2103 00e8 3033     		adds	r3, r3, #48
 2104 00ea 7A69     		ldr	r2, [r7, #20]
 2105 00ec 128E     		ldrh	r2, [r2, #48]
 2106 00ee 1A80     		strh	r2, [r3]	@ movhi
 409:bluetooth_rxtx.c **** 
 410:bluetooth_rxtx.c **** 	f->status = status;
 2107              		.loc 1 410 0
 2108 00f0 064B     		ldr	r3, .L44
 2109 00f2 1B78     		ldrb	r3, [r3]
 2110 00f4 DAB2     		uxtb	r2, r3
 2111 00f6 7B6A     		ldr	r3, [r7, #36]
 2112 00f8 5A70     		strb	r2, [r3, #1]
 411:bluetooth_rxtx.c **** 	status = 0;
 2113              		.loc 1 411 0
 2114 00fa 044B     		ldr	r3, .L44
 2115 00fc 0022     		movs	r2, #0
 2116 00fe 1A70     		strb	r2, [r3]
 412:bluetooth_rxtx.c **** 
ARM GAS  /tmp/ccHz27EZ.s 			page 44


 413:bluetooth_rxtx.c **** 	return 1;
 2117              		.loc 1 413 0
 2118 0100 0123     		movs	r3, #1
 2119              	.L43:
 414:bluetooth_rxtx.c **** }
 2120              		.loc 1 414 0
 2121 0102 1846     		mov	r0, r3
 2122 0104 2837     		adds	r7, r7, #40
 2123              		.cfi_def_cfa_offset 8
 2124 0106 BD46     		mov	sp, r7
 2125              		.cfi_def_cfa_register 13
 2126              		@ sp needed
 2127 0108 80BD     		pop	{r7, pc}
 2128              	.L45:
 2129 010a 00BF     		.align	2
 2130              	.L44:
 2131 010c 00000000 		.word	status
 2132 0110 00000000 		.word	channel
 2133 0114 38C00920 		.word	537509944
 2134              		.cfi_endproc
 2135              	.LFE8:
 2137              		.section	.text.cs_threshold_calc_and_set,"ax",%progbits
 2138              		.align	2
 2139              		.thumb
 2140              		.thumb_func
 2142              	cs_threshold_calc_and_set:
 2143              	.LFB9:
 415:bluetooth_rxtx.c **** 
 416:bluetooth_rxtx.c **** static void cs_threshold_calc_and_set(void)
 417:bluetooth_rxtx.c **** {
 2144              		.loc 1 417 0
 2145              		.cfi_startproc
 2146              		@ args = 0, pretend = 0, frame = 8
 2147              		@ frame_needed = 1, uses_anonymous_args = 0
 2148 0000 80B5     		push	{r7, lr}
 2149              		.cfi_def_cfa_offset 8
 2150              		.cfi_offset 7, -8
 2151              		.cfi_offset 14, -4
 2152 0002 82B0     		sub	sp, sp, #8
 2153              		.cfi_def_cfa_offset 16
 2154 0004 00AF     		add	r7, sp, #0
 2155              		.cfi_def_cfa_register 7
 418:bluetooth_rxtx.c **** 	int8_t level;
 419:bluetooth_rxtx.c **** 
 420:bluetooth_rxtx.c **** 	/* If threshold is max/avg based (>0), reset here while rx is
 421:bluetooth_rxtx.c **** 	 * off.  TODO - max-to-iir only works in SWEEP mode, where the
 422:bluetooth_rxtx.c **** 	 * channel is known to be in the BT band, i.e., rssi_iir has a
 423:bluetooth_rxtx.c **** 	 * value for it. */
 424:bluetooth_rxtx.c **** 	if ((hop_mode > 0) && (cs_threshold_req > 0)) {
 2156              		.loc 1 424 0
 2157 0006 174B     		ldr	r3, .L50
 2158 0008 1B78     		ldrb	r3, [r3]	@ zero_extendqisi2
 2159 000a 002B     		cmp	r3, #0
 2160 000c 1DD0     		beq	.L47
 2161              		.loc 1 424 0 is_stmt 0 discriminator 1
 2162 000e 164B     		ldr	r3, .L50+4
 2163 0010 1B78     		ldrb	r3, [r3]	@ zero_extendqisi2
ARM GAS  /tmp/ccHz27EZ.s 			page 45


 2164 0012 5BB2     		sxtb	r3, r3
 2165 0014 002B     		cmp	r3, #0
 2166 0016 18DD     		ble	.L47
 2167              	.LBB2:
 425:bluetooth_rxtx.c **** 		int8_t rssi = (int8_t)((rssi_iir[channel-2402] + 128)/256);
 2168              		.loc 1 425 0 is_stmt 1
 2169 0018 144B     		ldr	r3, .L50+8
 2170 001a 1B88     		ldrh	r3, [r3]	@ movhi
 2171 001c 9BB2     		uxth	r3, r3
 2172 001e A3F66213 		subw	r3, r3, #2402
 2173 0022 134A     		ldr	r2, .L50+12
 2174 0024 32F81330 		ldrh	r3, [r2, r3, lsl #1]
 2175 0028 1BB2     		sxth	r3, r3
 2176 002a 8033     		adds	r3, r3, #128
 2177 002c 002B     		cmp	r3, #0
 2178 002e 00DA     		bge	.L48
 2179 0030 FF33     		adds	r3, r3, #255
 2180              	.L48:
 2181 0032 1B12     		asrs	r3, r3, #8
 2182 0034 BB71     		strb	r3, [r7, #6]
 426:bluetooth_rxtx.c **** 		level = rssi - 54 + cs_threshold_req;
 2183              		.loc 1 426 0
 2184 0036 BA79     		ldrb	r2, [r7, #6]	@ zero_extendqisi2
 2185 0038 0B4B     		ldr	r3, .L50+4
 2186 003a 1B78     		ldrb	r3, [r3]	@ zero_extendqisi2
 2187 003c DBB2     		uxtb	r3, r3
 2188 003e 1344     		add	r3, r3, r2
 2189 0040 DBB2     		uxtb	r3, r3
 2190 0042 363B     		subs	r3, r3, #54
 2191 0044 DBB2     		uxtb	r3, r3
 2192 0046 FB71     		strb	r3, [r7, #7]
 2193              	.LBE2:
 424:bluetooth_rxtx.c **** 		int8_t rssi = (int8_t)((rssi_iir[channel-2402] + 128)/256);
 2194              		.loc 1 424 0
 2195 0048 02E0     		b	.L49
 2196              	.L47:
 427:bluetooth_rxtx.c **** 	}
 428:bluetooth_rxtx.c **** 	else {
 429:bluetooth_rxtx.c **** 		level = cs_threshold_req;
 2197              		.loc 1 429 0
 2198 004a 074B     		ldr	r3, .L50+4
 2199 004c 1B78     		ldrb	r3, [r3]
 2200 004e FB71     		strb	r3, [r7, #7]
 2201              	.L49:
 430:bluetooth_rxtx.c **** 	}
 431:bluetooth_rxtx.c **** 	cs_threshold_set(level, CS_SAMPLES_4);
 2202              		.loc 1 431 0
 2203 0050 97F90730 		ldrsb	r3, [r7, #7]
 2204 0054 1846     		mov	r0, r3
 2205 0056 0321     		movs	r1, #3
 2206 0058 FFF7FEFF 		bl	cs_threshold_set
 432:bluetooth_rxtx.c **** }
 2207              		.loc 1 432 0
 2208 005c 0837     		adds	r7, r7, #8
 2209              		.cfi_def_cfa_offset 8
 2210 005e BD46     		mov	sp, r7
 2211              		.cfi_def_cfa_register 13
ARM GAS  /tmp/ccHz27EZ.s 			page 46


 2212              		@ sp needed
 2213 0060 80BD     		pop	{r7, pc}
 2214              	.L51:
 2215 0062 00BF     		.align	2
 2216              	.L50:
 2217 0064 00000000 		.word	hop_mode
 2218 0068 00000000 		.word	cs_threshold_req
 2219 006c 00000000 		.word	channel
 2220 0070 00000000 		.word	rssi_iir
 2221              		.cfi_endproc
 2222              	.LFE9:
 2224              		.section	.text.cs_trigger_enable,"ax",%progbits
 2225              		.align	2
 2226              		.thumb
 2227              		.thumb_func
 2229              	cs_trigger_enable:
 2230              	.LFB10:
 433:bluetooth_rxtx.c **** 
 434:bluetooth_rxtx.c **** /* CS comes from CC2400 GIO6, which is LPC P2.2, active low. GPIO
 435:bluetooth_rxtx.c ****  * triggers EINT3, which could be used for other things (but is not
 436:bluetooth_rxtx.c ****  * currently). TODO - EINT3 should be managed globally, not turned on
 437:bluetooth_rxtx.c ****  * and off here. */
 438:bluetooth_rxtx.c **** static void cs_trigger_enable(void)
 439:bluetooth_rxtx.c **** {
 2231              		.loc 1 439 0
 2232              		.cfi_startproc
 2233              		@ args = 0, pretend = 0, frame = 0
 2234              		@ frame_needed = 1, uses_anonymous_args = 0
 2235              		@ link register save eliminated.
 2236 0000 80B4     		push	{r7}
 2237              		.cfi_def_cfa_offset 4
 2238              		.cfi_offset 7, -4
 2239 0002 00AF     		add	r7, sp, #0
 2240              		.cfi_def_cfa_register 7
 440:bluetooth_rxtx.c **** 	cs_trigger = 0;
 2241              		.loc 1 440 0
 2242 0004 094B     		ldr	r3, .L53
 2243 0006 0022     		movs	r2, #0
 2244 0008 1A70     		strb	r2, [r3]
 441:bluetooth_rxtx.c **** 	ISER0 = ISER0_ISE_EINT3;
 2245              		.loc 1 441 0
 2246 000a 094B     		ldr	r3, .L53+4
 2247 000c 4FF40012 		mov	r2, #2097152
 2248 0010 1A60     		str	r2, [r3]
 442:bluetooth_rxtx.c **** 	IO2IntClr = PIN_GIO6;      // Clear pending
 2249              		.loc 1 442 0
 2250 0012 084B     		ldr	r3, .L53+8
 2251 0014 0422     		movs	r2, #4
 2252 0016 1A60     		str	r2, [r3]
 443:bluetooth_rxtx.c **** 	IO2IntEnF |= PIN_GIO6;     // Enable port 2.2 falling (CS active low)
 2253              		.loc 1 443 0
 2254 0018 074A     		ldr	r2, .L53+12
 2255 001a 074B     		ldr	r3, .L53+12
 2256 001c 1B68     		ldr	r3, [r3]
 2257 001e 43F00403 		orr	r3, r3, #4
 2258 0022 1360     		str	r3, [r2]
 444:bluetooth_rxtx.c **** }
ARM GAS  /tmp/ccHz27EZ.s 			page 47


 2259              		.loc 1 444 0
 2260 0024 BD46     		mov	sp, r7
 2261              		.cfi_def_cfa_register 13
 2262              		@ sp needed
 2263 0026 5DF8047B 		ldr	r7, [sp], #4
 2264              		.cfi_restore 7
 2265              		.cfi_def_cfa_offset 0
 2266 002a 7047     		bx	lr
 2267              	.L54:
 2268              		.align	2
 2269              	.L53:
 2270 002c 00000000 		.word	cs_trigger
 2271 0030 00E100E0 		.word	-536813312
 2272 0034 AC800240 		.word	1073905836
 2273 0038 B4800240 		.word	1073905844
 2274              		.cfi_endproc
 2275              	.LFE10:
 2277              		.section	.text.cs_trigger_disable,"ax",%progbits
 2278              		.align	2
 2279              		.thumb
 2280              		.thumb_func
 2282              	cs_trigger_disable:
 2283              	.LFB11:
 445:bluetooth_rxtx.c **** 
 446:bluetooth_rxtx.c **** static void cs_trigger_disable(void)
 447:bluetooth_rxtx.c **** {
 2284              		.loc 1 447 0
 2285              		.cfi_startproc
 2286              		@ args = 0, pretend = 0, frame = 0
 2287              		@ frame_needed = 1, uses_anonymous_args = 0
 2288              		@ link register save eliminated.
 2289 0000 80B4     		push	{r7}
 2290              		.cfi_def_cfa_offset 4
 2291              		.cfi_offset 7, -4
 2292 0002 00AF     		add	r7, sp, #0
 2293              		.cfi_def_cfa_register 7
 448:bluetooth_rxtx.c **** 	IO2IntEnF &= ~PIN_GIO6;    // Disable port 2.2 falling (CS active low)
 2294              		.loc 1 448 0
 2295 0004 094A     		ldr	r2, .L56
 2296 0006 094B     		ldr	r3, .L56
 2297 0008 1B68     		ldr	r3, [r3]
 2298 000a 23F00403 		bic	r3, r3, #4
 2299 000e 1360     		str	r3, [r2]
 449:bluetooth_rxtx.c **** 	IO2IntClr = PIN_GIO6;      // Clear pending
 2300              		.loc 1 449 0
 2301 0010 074B     		ldr	r3, .L56+4
 2302 0012 0422     		movs	r2, #4
 2303 0014 1A60     		str	r2, [r3]
 450:bluetooth_rxtx.c **** 	ICER0 = ICER0_ICE_EINT3;
 2304              		.loc 1 450 0
 2305 0016 074B     		ldr	r3, .L56+8
 2306 0018 4FF40012 		mov	r2, #2097152
 2307 001c 1A60     		str	r2, [r3]
 451:bluetooth_rxtx.c **** 	cs_trigger = 0;
 2308              		.loc 1 451 0
 2309 001e 064B     		ldr	r3, .L56+12
 2310 0020 0022     		movs	r2, #0
ARM GAS  /tmp/ccHz27EZ.s 			page 48


 2311 0022 1A70     		strb	r2, [r3]
 452:bluetooth_rxtx.c **** }
 2312              		.loc 1 452 0
 2313 0024 BD46     		mov	sp, r7
 2314              		.cfi_def_cfa_register 13
 2315              		@ sp needed
 2316 0026 5DF8047B 		ldr	r7, [sp], #4
 2317              		.cfi_restore 7
 2318              		.cfi_def_cfa_offset 0
 2319 002a 7047     		bx	lr
 2320              	.L57:
 2321              		.align	2
 2322              	.L56:
 2323 002c B4800240 		.word	1073905844
 2324 0030 AC800240 		.word	1073905836
 2325 0034 80E100E0 		.word	-536813184
 2326 0038 00000000 		.word	cs_trigger
 2327              		.cfi_endproc
 2328              	.LFE11:
 2330              		.section	.rodata
 2331              		.align	2
 2332              	.LC3:
 2333 08e0 32303135 		.ascii	"2015-10-R1\000"
 2333      2D31302D 
 2333      523100
 2334              		.section	.text.vendor_request_handler,"ax",%progbits
 2335              		.align	2
 2336              		.thumb
 2337              		.thumb_func
 2339              	vendor_request_handler:
 2340              	.LFB12:
 453:bluetooth_rxtx.c **** 
 454:bluetooth_rxtx.c **** static int vendor_request_handler(u8 request, u16 *request_params, u8 *data, int *data_len)
 455:bluetooth_rxtx.c **** {
 2341              		.loc 1 455 0
 2342              		.cfi_startproc
 2343              		@ args = 0, pretend = 0, frame = 80
 2344              		@ frame_needed = 1, uses_anonymous_args = 0
 2345 0000 2DE9F04F 		push	{r4, r5, r6, r7, r8, r9, r10, fp, lr}
 2346              		.cfi_def_cfa_offset 36
 2347              		.cfi_offset 4, -36
 2348              		.cfi_offset 5, -32
 2349              		.cfi_offset 6, -28
 2350              		.cfi_offset 7, -24
 2351              		.cfi_offset 8, -20
 2352              		.cfi_offset 9, -16
 2353              		.cfi_offset 10, -12
 2354              		.cfi_offset 11, -8
 2355              		.cfi_offset 14, -4
 2356 0004 95B0     		sub	sp, sp, #84
 2357              		.cfi_def_cfa_offset 120
 2358 0006 00AF     		add	r7, sp, #0
 2359              		.cfi_def_cfa_register 7
 2360 0008 B960     		str	r1, [r7, #8]
 2361 000a 7A60     		str	r2, [r7, #4]
 2362 000c 3B60     		str	r3, [r7]
 2363 000e 0346     		mov	r3, r0
ARM GAS  /tmp/ccHz27EZ.s 			page 49


 2364 0010 FB73     		strb	r3, [r7, #15]
 456:bluetooth_rxtx.c **** 	u32 command[5];
 457:bluetooth_rxtx.c **** 	u32 result[5];
 458:bluetooth_rxtx.c **** 	u64 ac_copy;
 459:bluetooth_rxtx.c **** 	int i; // loop counter
 460:bluetooth_rxtx.c **** 	u32 clock;
 461:bluetooth_rxtx.c **** 	int clock_offset;
 462:bluetooth_rxtx.c **** 	u8 length; // string length
 463:bluetooth_rxtx.c **** 	usb_pkt_rx *p = NULL;
 2365              		.loc 1 463 0
 2366 0012 0023     		movs	r3, #0
 2367 0014 7B64     		str	r3, [r7, #68]
 464:bluetooth_rxtx.c **** 	u16 reg_val;
 465:bluetooth_rxtx.c **** 
 466:bluetooth_rxtx.c **** 	switch (request) {
 2368              		.loc 1 466 0
 2369 0016 FB7B     		ldrb	r3, [r7, #15]	@ zero_extendqisi2
 2370 0018 3C2B     		cmp	r3, #60
 2371 001a 00F25185 		bhi	.L59
 2372 001e 01A2     		adr	r2, .L61
 2373 0020 52F823F0 		ldr	pc, [r2, r3, lsl #2]
 2374              		.p2align 2
 2375              	.L61:
 2376 0024 19010000 		.word	.L60+1
 2377 0028 23010000 		.word	.L62+1
 2378 002c C10A0000 		.word	.L59+1
 2379 0030 33010000 		.word	.L63+1
 2380 0034 55010000 		.word	.L64+1
 2381 0038 71010000 		.word	.L65+1
 2382 003c 93010000 		.word	.L66+1
 2383 0040 AF010000 		.word	.L67+1
 2384 0044 D1010000 		.word	.L68+1
 2385 0048 F1010000 		.word	.L69+1
 2386 004c 13020000 		.word	.L70+1
 2387 0050 B7040000 		.word	.L71+1
 2388 0054 DD040000 		.word	.L72+1
 2389 0058 89020000 		.word	.L73+1
 2390 005c 93020000 		.word	.L74+1
 2391 0060 33020000 		.word	.L75+1
 2392 0064 71030000 		.word	.L76+1
 2393 0068 91030000 		.word	.L77+1
 2394 006c C9030000 		.word	.L78+1
 2395 0070 E9030000 		.word	.L79+1
 2396 0074 05040000 		.word	.L80+1
 2397 0078 91040000 		.word	.L81+1
 2398 007c 99040000 		.word	.L82+1
 2399 0080 AB040000 		.word	.L83+1
 2400 0084 67050000 		.word	.L84+1
 2401 0088 85050000 		.word	.L85+1
 2402 008c C10A0000 		.word	.L59+1
 2403 0090 91050000 		.word	.L86+1
 2404 0094 0D040000 		.word	.L87+1
 2405 0098 29040000 		.word	.L88+1
 2406 009c 51040000 		.word	.L89+1
 2407 00a0 49040000 		.word	.L90+1
 2408 00a4 59040000 		.word	.L91+1
 2409 00a8 55060000 		.word	.L92+1
ARM GAS  /tmp/ccHz27EZ.s 			page 50


 2410 00ac ED050000 		.word	.L93+1
 2411 00b0 C9060000 		.word	.L94+1
 2412 00b4 D7060000 		.word	.L95+1
 2413 00b8 E7060000 		.word	.L96+1
 2414 00bc F9060000 		.word	.L97+1
 2415 00c0 C5070000 		.word	.L98+1
 2416 00c4 0B080000 		.word	.L99+1
 2417 00c8 99080000 		.word	.L100+1
 2418 00cc CD080000 		.word	.L101+1
 2419 00d0 EF080000 		.word	.L102+1
 2420 00d4 47090000 		.word	.L103+1
 2421 00d8 C50A0000 		.word	.L162+1
 2422 00dc 79090000 		.word	.L105+1
 2423 00e0 8F090000 		.word	.L106+1
 2424 00e4 AB090000 		.word	.L107+1
 2425 00e8 C1090000 		.word	.L108+1
 2426 00ec ED090000 		.word	.L109+1
 2427 00f0 3D080000 		.word	.L110+1
 2428 00f4 6F080000 		.word	.L111+1
 2429 00f8 090A0000 		.word	.L112+1
 2430 00fc 4D0A0000 		.word	.L113+1
 2431 0100 97060000 		.word	.L114+1
 2432 0104 5F0A0000 		.word	.L115+1
 2433 0108 C10A0000 		.word	.L59+1
 2434 010c 370A0000 		.word	.L116+1
 2435 0110 A30A0000 		.word	.L117+1
 2436 0114 AF0A0000 		.word	.L118+1
 2437              		.p2align 1
 2438              	.L60:
 467:bluetooth_rxtx.c **** 
 468:bluetooth_rxtx.c **** 	case UBERTOOTH_PING:
 469:bluetooth_rxtx.c **** 		*data_len = 0;
 2439              		.loc 1 469 0
 2440 0118 3B68     		ldr	r3, [r7]
 2441 011a 0022     		movs	r2, #0
 2442 011c 1A60     		str	r2, [r3]
 470:bluetooth_rxtx.c **** 		break;
 2443              		.loc 1 470 0
 2444 011e 00F0D2BC 		b	.L119
 2445              	.L62:
 471:bluetooth_rxtx.c **** 
 472:bluetooth_rxtx.c **** 	case UBERTOOTH_RX_SYMBOLS:
 473:bluetooth_rxtx.c **** 		requested_mode = MODE_RX_SYMBOLS;
 2446              		.loc 1 473 0
 2447 0122 A14B     		ldr	r3, .L163
 2448 0124 0122     		movs	r2, #1
 2449 0126 1A70     		strb	r2, [r3]
 474:bluetooth_rxtx.c **** 		*data_len = 0;
 2450              		.loc 1 474 0
 2451 0128 3B68     		ldr	r3, [r7]
 2452 012a 0022     		movs	r2, #0
 2453 012c 1A60     		str	r2, [r3]
 475:bluetooth_rxtx.c **** 		break;
 2454              		.loc 1 475 0
 2455 012e 00F0CABC 		b	.L119
 2456              	.L63:
 476:bluetooth_rxtx.c **** 
ARM GAS  /tmp/ccHz27EZ.s 			page 51


 477:bluetooth_rxtx.c **** 	case UBERTOOTH_GET_USRLED:
 478:bluetooth_rxtx.c **** 		data[0] = (USRLED) ? 1 : 0;
 2457              		.loc 1 478 0
 2458 0132 9E4B     		ldr	r3, .L163+4
 2459 0134 1B68     		ldr	r3, [r3]
 2460 0136 03F00203 		and	r3, r3, #2
 2461 013a 002B     		cmp	r3, #0
 2462 013c 14BF     		ite	ne
 2463 013e 0123     		movne	r3, #1
 2464 0140 0023     		moveq	r3, #0
 2465 0142 DBB2     		uxtb	r3, r3
 2466 0144 1A46     		mov	r2, r3
 2467 0146 7B68     		ldr	r3, [r7, #4]
 2468 0148 1A70     		strb	r2, [r3]
 479:bluetooth_rxtx.c **** 		*data_len = 1;
 2469              		.loc 1 479 0
 2470 014a 3B68     		ldr	r3, [r7]
 2471 014c 0122     		movs	r2, #1
 2472 014e 1A60     		str	r2, [r3]
 480:bluetooth_rxtx.c **** 		break;
 2473              		.loc 1 480 0
 2474 0150 00F0B9BC 		b	.L119
 2475              	.L64:
 481:bluetooth_rxtx.c **** 
 482:bluetooth_rxtx.c **** 	case UBERTOOTH_SET_USRLED:
 483:bluetooth_rxtx.c **** 		if (request_params[0])
 2476              		.loc 1 483 0
 2477 0154 BB68     		ldr	r3, [r7, #8]
 2478 0156 1B88     		ldrh	r3, [r3]
 2479 0158 002B     		cmp	r3, #0
 2480 015a 04D0     		beq	.L120
 484:bluetooth_rxtx.c **** 			USRLED_SET;
 2481              		.loc 1 484 0
 2482 015c 944B     		ldr	r3, .L163+8
 2483 015e 0222     		movs	r2, #2
 2484 0160 1A60     		str	r2, [r3]
 485:bluetooth_rxtx.c **** 		else
 486:bluetooth_rxtx.c **** 			USRLED_CLR;
 487:bluetooth_rxtx.c **** 		break;
 2485              		.loc 1 487 0
 2486 0162 00F0B0BC 		b	.L119
 2487              	.L120:
 486:bluetooth_rxtx.c **** 		break;
 2488              		.loc 1 486 0
 2489 0166 934B     		ldr	r3, .L163+12
 2490 0168 0222     		movs	r2, #2
 2491 016a 1A60     		str	r2, [r3]
 2492              		.loc 1 487 0
 2493 016c 00F0ABBC 		b	.L119
 2494              	.L65:
 488:bluetooth_rxtx.c **** 
 489:bluetooth_rxtx.c **** 	case UBERTOOTH_GET_RXLED:
 490:bluetooth_rxtx.c **** 		data[0] = (RXLED) ? 1 : 0;
 2495              		.loc 1 490 0
 2496 0170 8E4B     		ldr	r3, .L163+4
 2497 0172 1B68     		ldr	r3, [r3]
 2498 0174 03F01003 		and	r3, r3, #16
ARM GAS  /tmp/ccHz27EZ.s 			page 52


 2499 0178 002B     		cmp	r3, #0
 2500 017a 14BF     		ite	ne
 2501 017c 0123     		movne	r3, #1
 2502 017e 0023     		moveq	r3, #0
 2503 0180 DBB2     		uxtb	r3, r3
 2504 0182 1A46     		mov	r2, r3
 2505 0184 7B68     		ldr	r3, [r7, #4]
 2506 0186 1A70     		strb	r2, [r3]
 491:bluetooth_rxtx.c **** 		*data_len = 1;
 2507              		.loc 1 491 0
 2508 0188 3B68     		ldr	r3, [r7]
 2509 018a 0122     		movs	r2, #1
 2510 018c 1A60     		str	r2, [r3]
 492:bluetooth_rxtx.c **** 		break;
 2511              		.loc 1 492 0
 2512 018e 00F09ABC 		b	.L119
 2513              	.L66:
 493:bluetooth_rxtx.c **** 
 494:bluetooth_rxtx.c **** 	case UBERTOOTH_SET_RXLED:
 495:bluetooth_rxtx.c **** 		if (request_params[0])
 2514              		.loc 1 495 0
 2515 0192 BB68     		ldr	r3, [r7, #8]
 2516 0194 1B88     		ldrh	r3, [r3]
 2517 0196 002B     		cmp	r3, #0
 2518 0198 04D0     		beq	.L122
 496:bluetooth_rxtx.c **** 			RXLED_SET;
 2519              		.loc 1 496 0
 2520 019a 854B     		ldr	r3, .L163+8
 2521 019c 1022     		movs	r2, #16
 2522 019e 1A60     		str	r2, [r3]
 497:bluetooth_rxtx.c **** 		else
 498:bluetooth_rxtx.c **** 			RXLED_CLR;
 499:bluetooth_rxtx.c **** 		break;
 2523              		.loc 1 499 0
 2524 01a0 00F091BC 		b	.L119
 2525              	.L122:
 498:bluetooth_rxtx.c **** 		break;
 2526              		.loc 1 498 0
 2527 01a4 834B     		ldr	r3, .L163+12
 2528 01a6 1022     		movs	r2, #16
 2529 01a8 1A60     		str	r2, [r3]
 2530              		.loc 1 499 0
 2531 01aa 00F08CBC 		b	.L119
 2532              	.L67:
 500:bluetooth_rxtx.c **** 
 501:bluetooth_rxtx.c **** 	case UBERTOOTH_GET_TXLED:
 502:bluetooth_rxtx.c **** 		data[0] = (TXLED) ? 1 : 0;
 2533              		.loc 1 502 0
 2534 01ae 7F4B     		ldr	r3, .L163+4
 2535 01b0 1B68     		ldr	r3, [r3]
 2536 01b2 03F48073 		and	r3, r3, #256
 2537 01b6 002B     		cmp	r3, #0
 2538 01b8 14BF     		ite	ne
 2539 01ba 0123     		movne	r3, #1
 2540 01bc 0023     		moveq	r3, #0
 2541 01be DBB2     		uxtb	r3, r3
 2542 01c0 1A46     		mov	r2, r3
ARM GAS  /tmp/ccHz27EZ.s 			page 53


 2543 01c2 7B68     		ldr	r3, [r7, #4]
 2544 01c4 1A70     		strb	r2, [r3]
 503:bluetooth_rxtx.c **** 		*data_len = 1;
 2545              		.loc 1 503 0
 2546 01c6 3B68     		ldr	r3, [r7]
 2547 01c8 0122     		movs	r2, #1
 2548 01ca 1A60     		str	r2, [r3]
 504:bluetooth_rxtx.c **** 		break;
 2549              		.loc 1 504 0
 2550 01cc 00F07BBC 		b	.L119
 2551              	.L68:
 505:bluetooth_rxtx.c **** 
 506:bluetooth_rxtx.c **** 	case UBERTOOTH_SET_TXLED:
 507:bluetooth_rxtx.c **** 		if (request_params[0])
 2552              		.loc 1 507 0
 2553 01d0 BB68     		ldr	r3, [r7, #8]
 2554 01d2 1B88     		ldrh	r3, [r3]
 2555 01d4 002B     		cmp	r3, #0
 2556 01d6 05D0     		beq	.L124
 508:bluetooth_rxtx.c **** 			TXLED_SET;
 2557              		.loc 1 508 0
 2558 01d8 754B     		ldr	r3, .L163+8
 2559 01da 4FF48072 		mov	r2, #256
 2560 01de 1A60     		str	r2, [r3]
 509:bluetooth_rxtx.c **** 		else
 510:bluetooth_rxtx.c **** 			TXLED_CLR;
 511:bluetooth_rxtx.c **** 		break;
 2561              		.loc 1 511 0
 2562 01e0 00F071BC 		b	.L119
 2563              	.L124:
 510:bluetooth_rxtx.c **** 		break;
 2564              		.loc 1 510 0
 2565 01e4 734B     		ldr	r3, .L163+12
 2566 01e6 4FF48072 		mov	r2, #256
 2567 01ea 1A60     		str	r2, [r3]
 2568              		.loc 1 511 0
 2569 01ec 00F06BBC 		b	.L119
 2570              	.L69:
 512:bluetooth_rxtx.c **** 
 513:bluetooth_rxtx.c **** 	case UBERTOOTH_GET_1V8:
 514:bluetooth_rxtx.c **** 		data[0] = (CC1V8) ? 1 : 0;
 2571              		.loc 1 514 0
 2572 01f0 6E4B     		ldr	r3, .L163+4
 2573 01f2 1B68     		ldr	r3, [r3]
 2574 01f4 03F40073 		and	r3, r3, #512
 2575 01f8 002B     		cmp	r3, #0
 2576 01fa 14BF     		ite	ne
 2577 01fc 0123     		movne	r3, #1
 2578 01fe 0023     		moveq	r3, #0
 2579 0200 DBB2     		uxtb	r3, r3
 2580 0202 1A46     		mov	r2, r3
 2581 0204 7B68     		ldr	r3, [r7, #4]
 2582 0206 1A70     		strb	r2, [r3]
 515:bluetooth_rxtx.c **** 		*data_len = 1;
 2583              		.loc 1 515 0
 2584 0208 3B68     		ldr	r3, [r7]
 2585 020a 0122     		movs	r2, #1
ARM GAS  /tmp/ccHz27EZ.s 			page 54


 2586 020c 1A60     		str	r2, [r3]
 516:bluetooth_rxtx.c **** 		break;
 2587              		.loc 1 516 0
 2588 020e 00F05ABC 		b	.L119
 2589              	.L70:
 517:bluetooth_rxtx.c **** 
 518:bluetooth_rxtx.c **** 	case UBERTOOTH_SET_1V8:
 519:bluetooth_rxtx.c **** 		if (request_params[0])
 2590              		.loc 1 519 0
 2591 0212 BB68     		ldr	r3, [r7, #8]
 2592 0214 1B88     		ldrh	r3, [r3]
 2593 0216 002B     		cmp	r3, #0
 2594 0218 05D0     		beq	.L126
 520:bluetooth_rxtx.c **** 			CC1V8_SET;
 2595              		.loc 1 520 0
 2596 021a 654B     		ldr	r3, .L163+8
 2597 021c 4FF40072 		mov	r2, #512
 2598 0220 1A60     		str	r2, [r3]
 521:bluetooth_rxtx.c **** 		else
 522:bluetooth_rxtx.c **** 			CC1V8_CLR;
 523:bluetooth_rxtx.c **** 		break;
 2599              		.loc 1 523 0
 2600 0222 00F050BC 		b	.L119
 2601              	.L126:
 522:bluetooth_rxtx.c **** 		break;
 2602              		.loc 1 522 0
 2603 0226 634B     		ldr	r3, .L163+12
 2604 0228 4FF40072 		mov	r2, #512
 2605 022c 1A60     		str	r2, [r3]
 2606              		.loc 1 523 0
 2607 022e 00F04ABC 		b	.L119
 2608              	.L75:
 524:bluetooth_rxtx.c **** 
 525:bluetooth_rxtx.c **** 	case UBERTOOTH_GET_PARTNUM:
 526:bluetooth_rxtx.c **** 		command[0] = 54; /* read part number */
 2609              		.loc 1 526 0
 2610 0232 3623     		movs	r3, #54
 2611 0234 7B62     		str	r3, [r7, #36]
 527:bluetooth_rxtx.c **** 		iap_entry(command, result);
 2612              		.loc 1 527 0
 2613 0236 604B     		ldr	r3, .L163+16
 2614 0238 1B68     		ldr	r3, [r3]
 2615 023a 07F12401 		add	r1, r7, #36
 2616 023e 07F11002 		add	r2, r7, #16
 2617 0242 0846     		mov	r0, r1
 2618 0244 1146     		mov	r1, r2
 2619 0246 9847     		blx	r3
 528:bluetooth_rxtx.c **** 		data[0] = result[0] & 0xFF; /* status */
 2620              		.loc 1 528 0
 2621 0248 3B69     		ldr	r3, [r7, #16]
 2622 024a DAB2     		uxtb	r2, r3
 2623 024c 7B68     		ldr	r3, [r7, #4]
 2624 024e 1A70     		strb	r2, [r3]
 529:bluetooth_rxtx.c **** 		data[1] = result[1] & 0xFF;
 2625              		.loc 1 529 0
 2626 0250 7B68     		ldr	r3, [r7, #4]
 2627 0252 0133     		adds	r3, r3, #1
ARM GAS  /tmp/ccHz27EZ.s 			page 55


 2628 0254 7A69     		ldr	r2, [r7, #20]
 2629 0256 D2B2     		uxtb	r2, r2
 2630 0258 1A70     		strb	r2, [r3]
 530:bluetooth_rxtx.c **** 		data[2] = (result[1] >> 8) & 0xFF;
 2631              		.loc 1 530 0
 2632 025a 7B68     		ldr	r3, [r7, #4]
 2633 025c 0233     		adds	r3, r3, #2
 2634 025e 7A69     		ldr	r2, [r7, #20]
 2635 0260 120A     		lsrs	r2, r2, #8
 2636 0262 D2B2     		uxtb	r2, r2
 2637 0264 1A70     		strb	r2, [r3]
 531:bluetooth_rxtx.c **** 		data[3] = (result[1] >> 16) & 0xFF;
 2638              		.loc 1 531 0
 2639 0266 7B68     		ldr	r3, [r7, #4]
 2640 0268 0333     		adds	r3, r3, #3
 2641 026a 7A69     		ldr	r2, [r7, #20]
 2642 026c 120C     		lsrs	r2, r2, #16
 2643 026e D2B2     		uxtb	r2, r2
 2644 0270 1A70     		strb	r2, [r3]
 532:bluetooth_rxtx.c **** 		data[4] = (result[1] >> 24) & 0xFF;
 2645              		.loc 1 532 0
 2646 0272 7B68     		ldr	r3, [r7, #4]
 2647 0274 0433     		adds	r3, r3, #4
 2648 0276 7A69     		ldr	r2, [r7, #20]
 2649 0278 120E     		lsrs	r2, r2, #24
 2650 027a D2B2     		uxtb	r2, r2
 2651 027c 1A70     		strb	r2, [r3]
 533:bluetooth_rxtx.c **** 		*data_len = 5;
 2652              		.loc 1 533 0
 2653 027e 3B68     		ldr	r3, [r7]
 2654 0280 0522     		movs	r2, #5
 2655 0282 1A60     		str	r2, [r3]
 534:bluetooth_rxtx.c **** 		break;
 2656              		.loc 1 534 0
 2657 0284 00F01FBC 		b	.L119
 2658              	.L73:
 535:bluetooth_rxtx.c **** 
 536:bluetooth_rxtx.c **** 	case UBERTOOTH_RESET:
 537:bluetooth_rxtx.c **** 		requested_mode = MODE_RESET;
 2659              		.loc 1 537 0
 2660 0288 474B     		ldr	r3, .L163
 2661 028a 0B22     		movs	r2, #11
 2662 028c 1A70     		strb	r2, [r3]
 538:bluetooth_rxtx.c **** 		break;
 2663              		.loc 1 538 0
 2664 028e 00F01ABC 		b	.L119
 2665              	.L74:
 539:bluetooth_rxtx.c **** 
 540:bluetooth_rxtx.c **** 	case UBERTOOTH_GET_SERIAL:
 541:bluetooth_rxtx.c **** 		command[0] = 58; /* read device serial number */
 2666              		.loc 1 541 0
 2667 0292 3A23     		movs	r3, #58
 2668 0294 7B62     		str	r3, [r7, #36]
 542:bluetooth_rxtx.c **** 		iap_entry(command, result);
 2669              		.loc 1 542 0
 2670 0296 484B     		ldr	r3, .L163+16
 2671 0298 1B68     		ldr	r3, [r3]
ARM GAS  /tmp/ccHz27EZ.s 			page 56


 2672 029a 07F12401 		add	r1, r7, #36
 2673 029e 07F11002 		add	r2, r7, #16
 2674 02a2 0846     		mov	r0, r1
 2675 02a4 1146     		mov	r1, r2
 2676 02a6 9847     		blx	r3
 543:bluetooth_rxtx.c **** 		data[0] = result[0] & 0xFF; /* status */
 2677              		.loc 1 543 0
 2678 02a8 3B69     		ldr	r3, [r7, #16]
 2679 02aa DAB2     		uxtb	r2, r3
 2680 02ac 7B68     		ldr	r3, [r7, #4]
 2681 02ae 1A70     		strb	r2, [r3]
 544:bluetooth_rxtx.c **** 		data[1] = result[1] & 0xFF;
 2682              		.loc 1 544 0
 2683 02b0 7B68     		ldr	r3, [r7, #4]
 2684 02b2 0133     		adds	r3, r3, #1
 2685 02b4 7A69     		ldr	r2, [r7, #20]
 2686 02b6 D2B2     		uxtb	r2, r2
 2687 02b8 1A70     		strb	r2, [r3]
 545:bluetooth_rxtx.c **** 		data[2] = (result[1] >> 8) & 0xFF;
 2688              		.loc 1 545 0
 2689 02ba 7B68     		ldr	r3, [r7, #4]
 2690 02bc 0233     		adds	r3, r3, #2
 2691 02be 7A69     		ldr	r2, [r7, #20]
 2692 02c0 120A     		lsrs	r2, r2, #8
 2693 02c2 D2B2     		uxtb	r2, r2
 2694 02c4 1A70     		strb	r2, [r3]
 546:bluetooth_rxtx.c **** 		data[3] = (result[1] >> 16) & 0xFF;
 2695              		.loc 1 546 0
 2696 02c6 7B68     		ldr	r3, [r7, #4]
 2697 02c8 0333     		adds	r3, r3, #3
 2698 02ca 7A69     		ldr	r2, [r7, #20]
 2699 02cc 120C     		lsrs	r2, r2, #16
 2700 02ce D2B2     		uxtb	r2, r2
 2701 02d0 1A70     		strb	r2, [r3]
 547:bluetooth_rxtx.c **** 		data[4] = (result[1] >> 24) & 0xFF;
 2702              		.loc 1 547 0
 2703 02d2 7B68     		ldr	r3, [r7, #4]
 2704 02d4 0433     		adds	r3, r3, #4
 2705 02d6 7A69     		ldr	r2, [r7, #20]
 2706 02d8 120E     		lsrs	r2, r2, #24
 2707 02da D2B2     		uxtb	r2, r2
 2708 02dc 1A70     		strb	r2, [r3]
 548:bluetooth_rxtx.c **** 		data[5] = result[2] & 0xFF;
 2709              		.loc 1 548 0
 2710 02de 7B68     		ldr	r3, [r7, #4]
 2711 02e0 0533     		adds	r3, r3, #5
 2712 02e2 BA69     		ldr	r2, [r7, #24]
 2713 02e4 D2B2     		uxtb	r2, r2
 2714 02e6 1A70     		strb	r2, [r3]
 549:bluetooth_rxtx.c **** 		data[6] = (result[2] >> 8) & 0xFF;
 2715              		.loc 1 549 0
 2716 02e8 7B68     		ldr	r3, [r7, #4]
 2717 02ea 0633     		adds	r3, r3, #6
 2718 02ec BA69     		ldr	r2, [r7, #24]
 2719 02ee 120A     		lsrs	r2, r2, #8
 2720 02f0 D2B2     		uxtb	r2, r2
 2721 02f2 1A70     		strb	r2, [r3]
ARM GAS  /tmp/ccHz27EZ.s 			page 57


 550:bluetooth_rxtx.c **** 		data[7] = (result[2] >> 16) & 0xFF;
 2722              		.loc 1 550 0
 2723 02f4 7B68     		ldr	r3, [r7, #4]
 2724 02f6 0733     		adds	r3, r3, #7
 2725 02f8 BA69     		ldr	r2, [r7, #24]
 2726 02fa 120C     		lsrs	r2, r2, #16
 2727 02fc D2B2     		uxtb	r2, r2
 2728 02fe 1A70     		strb	r2, [r3]
 551:bluetooth_rxtx.c **** 		data[8] = (result[2] >> 24) & 0xFF;
 2729              		.loc 1 551 0
 2730 0300 7B68     		ldr	r3, [r7, #4]
 2731 0302 0833     		adds	r3, r3, #8
 2732 0304 BA69     		ldr	r2, [r7, #24]
 2733 0306 120E     		lsrs	r2, r2, #24
 2734 0308 D2B2     		uxtb	r2, r2
 2735 030a 1A70     		strb	r2, [r3]
 552:bluetooth_rxtx.c **** 		data[9] = result[3] & 0xFF;
 2736              		.loc 1 552 0
 2737 030c 7B68     		ldr	r3, [r7, #4]
 2738 030e 0933     		adds	r3, r3, #9
 2739 0310 FA69     		ldr	r2, [r7, #28]
 2740 0312 D2B2     		uxtb	r2, r2
 2741 0314 1A70     		strb	r2, [r3]
 553:bluetooth_rxtx.c **** 		data[10] = (result[3] >> 8) & 0xFF;
 2742              		.loc 1 553 0
 2743 0316 7B68     		ldr	r3, [r7, #4]
 2744 0318 0A33     		adds	r3, r3, #10
 2745 031a FA69     		ldr	r2, [r7, #28]
 2746 031c 120A     		lsrs	r2, r2, #8
 2747 031e D2B2     		uxtb	r2, r2
 2748 0320 1A70     		strb	r2, [r3]
 554:bluetooth_rxtx.c **** 		data[11] = (result[3] >> 16) & 0xFF;
 2749              		.loc 1 554 0
 2750 0322 7B68     		ldr	r3, [r7, #4]
 2751 0324 0B33     		adds	r3, r3, #11
 2752 0326 FA69     		ldr	r2, [r7, #28]
 2753 0328 120C     		lsrs	r2, r2, #16
 2754 032a D2B2     		uxtb	r2, r2
 2755 032c 1A70     		strb	r2, [r3]
 555:bluetooth_rxtx.c **** 		data[12] = (result[3] >> 24) & 0xFF;
 2756              		.loc 1 555 0
 2757 032e 7B68     		ldr	r3, [r7, #4]
 2758 0330 0C33     		adds	r3, r3, #12
 2759 0332 FA69     		ldr	r2, [r7, #28]
 2760 0334 120E     		lsrs	r2, r2, #24
 2761 0336 D2B2     		uxtb	r2, r2
 2762 0338 1A70     		strb	r2, [r3]
 556:bluetooth_rxtx.c **** 		data[13] = result[4] & 0xFF;
 2763              		.loc 1 556 0
 2764 033a 7B68     		ldr	r3, [r7, #4]
 2765 033c 0D33     		adds	r3, r3, #13
 2766 033e 3A6A     		ldr	r2, [r7, #32]
 2767 0340 D2B2     		uxtb	r2, r2
 2768 0342 1A70     		strb	r2, [r3]
 557:bluetooth_rxtx.c **** 		data[14] = (result[4] >> 8) & 0xFF;
 2769              		.loc 1 557 0
 2770 0344 7B68     		ldr	r3, [r7, #4]
ARM GAS  /tmp/ccHz27EZ.s 			page 58


 2771 0346 0E33     		adds	r3, r3, #14
 2772 0348 3A6A     		ldr	r2, [r7, #32]
 2773 034a 120A     		lsrs	r2, r2, #8
 2774 034c D2B2     		uxtb	r2, r2
 2775 034e 1A70     		strb	r2, [r3]
 558:bluetooth_rxtx.c **** 		data[15] = (result[4] >> 16) & 0xFF;
 2776              		.loc 1 558 0
 2777 0350 7B68     		ldr	r3, [r7, #4]
 2778 0352 0F33     		adds	r3, r3, #15
 2779 0354 3A6A     		ldr	r2, [r7, #32]
 2780 0356 120C     		lsrs	r2, r2, #16
 2781 0358 D2B2     		uxtb	r2, r2
 2782 035a 1A70     		strb	r2, [r3]
 559:bluetooth_rxtx.c **** 		data[16] = (result[4] >> 24) & 0xFF;
 2783              		.loc 1 559 0
 2784 035c 7B68     		ldr	r3, [r7, #4]
 2785 035e 1033     		adds	r3, r3, #16
 2786 0360 3A6A     		ldr	r2, [r7, #32]
 2787 0362 120E     		lsrs	r2, r2, #24
 2788 0364 D2B2     		uxtb	r2, r2
 2789 0366 1A70     		strb	r2, [r3]
 560:bluetooth_rxtx.c **** 		*data_len = 17;
 2790              		.loc 1 560 0
 2791 0368 3B68     		ldr	r3, [r7]
 2792 036a 1122     		movs	r2, #17
 2793 036c 1A60     		str	r2, [r3]
 561:bluetooth_rxtx.c **** 		break;
 2794              		.loc 1 561 0
 2795 036e AAE3     		b	.L119
 2796              	.L76:
 562:bluetooth_rxtx.c **** 
 563:bluetooth_rxtx.c **** #ifdef UBERTOOTH_ONE
 564:bluetooth_rxtx.c **** 	case UBERTOOTH_GET_PAEN:
 565:bluetooth_rxtx.c **** 		data[0] = (PAEN) ? 1 : 0;
 2797              		.loc 1 565 0
 2798 0370 124B     		ldr	r3, .L163+20
 2799 0372 1B68     		ldr	r3, [r3]
 2800 0374 03F08003 		and	r3, r3, #128
 2801 0378 002B     		cmp	r3, #0
 2802 037a 14BF     		ite	ne
 2803 037c 0123     		movne	r3, #1
 2804 037e 0023     		moveq	r3, #0
 2805 0380 DBB2     		uxtb	r3, r3
 2806 0382 1A46     		mov	r2, r3
 2807 0384 7B68     		ldr	r3, [r7, #4]
 2808 0386 1A70     		strb	r2, [r3]
 566:bluetooth_rxtx.c **** 		*data_len = 1;
 2809              		.loc 1 566 0
 2810 0388 3B68     		ldr	r3, [r7]
 2811 038a 0122     		movs	r2, #1
 2812 038c 1A60     		str	r2, [r3]
 567:bluetooth_rxtx.c **** 		break;
 2813              		.loc 1 567 0
 2814 038e 9AE3     		b	.L119
 2815              	.L77:
 568:bluetooth_rxtx.c **** 
 569:bluetooth_rxtx.c **** 	case UBERTOOTH_SET_PAEN:
ARM GAS  /tmp/ccHz27EZ.s 			page 59


 570:bluetooth_rxtx.c **** 		if (request_params[0])
 2816              		.loc 1 570 0
 2817 0390 BB68     		ldr	r3, [r7, #8]
 2818 0392 1B88     		ldrh	r3, [r3]
 2819 0394 002B     		cmp	r3, #0
 2820 0396 03D0     		beq	.L128
 571:bluetooth_rxtx.c **** 			PAEN_SET;
 2821              		.loc 1 571 0
 2822 0398 094B     		ldr	r3, .L163+24
 2823 039a 8022     		movs	r2, #128
 2824 039c 1A60     		str	r2, [r3]
 572:bluetooth_rxtx.c **** 		else
 573:bluetooth_rxtx.c **** 			PAEN_CLR;
 574:bluetooth_rxtx.c **** 		break;
 2825              		.loc 1 574 0
 2826 039e 92E3     		b	.L119
 2827              	.L128:
 573:bluetooth_rxtx.c **** 		break;
 2828              		.loc 1 573 0
 2829 03a0 084B     		ldr	r3, .L163+28
 2830 03a2 8022     		movs	r2, #128
 2831 03a4 1A60     		str	r2, [r3]
 2832              		.loc 1 574 0
 2833 03a6 8EE3     		b	.L119
 2834              	.L164:
 2835              		.align	2
 2836              	.L163:
 2837 03a8 00000000 		.word	requested_mode
 2838 03ac 34C00920 		.word	537509940
 2839 03b0 38C00920 		.word	537509944
 2840 03b4 3CC00920 		.word	537509948
 2841 03b8 00000000 		.word	iap_entry
 2842 03bc 54C00920 		.word	537509972
 2843 03c0 58C00920 		.word	537509976
 2844 03c4 5CC00920 		.word	537509980
 2845              	.L78:
 575:bluetooth_rxtx.c **** 
 576:bluetooth_rxtx.c **** 	case UBERTOOTH_GET_HGM:
 577:bluetooth_rxtx.c **** 		data[0] = (HGM) ? 1 : 0;
 2846              		.loc 1 577 0
 2847 03c8 924B     		ldr	r3, .L165
 2848 03ca 1B68     		ldr	r3, [r3]
 2849 03cc 03F48073 		and	r3, r3, #256
 2850 03d0 002B     		cmp	r3, #0
 2851 03d2 14BF     		ite	ne
 2852 03d4 0123     		movne	r3, #1
 2853 03d6 0023     		moveq	r3, #0
 2854 03d8 DBB2     		uxtb	r3, r3
 2855 03da 1A46     		mov	r2, r3
 2856 03dc 7B68     		ldr	r3, [r7, #4]
 2857 03de 1A70     		strb	r2, [r3]
 578:bluetooth_rxtx.c **** 		*data_len = 1;
 2858              		.loc 1 578 0
 2859 03e0 3B68     		ldr	r3, [r7]
 2860 03e2 0122     		movs	r2, #1
 2861 03e4 1A60     		str	r2, [r3]
 579:bluetooth_rxtx.c **** 		break;
ARM GAS  /tmp/ccHz27EZ.s 			page 60


 2862              		.loc 1 579 0
 2863 03e6 6EE3     		b	.L119
 2864              	.L79:
 580:bluetooth_rxtx.c **** 
 581:bluetooth_rxtx.c **** 	case UBERTOOTH_SET_HGM:
 582:bluetooth_rxtx.c **** 		if (request_params[0])
 2865              		.loc 1 582 0
 2866 03e8 BB68     		ldr	r3, [r7, #8]
 2867 03ea 1B88     		ldrh	r3, [r3]
 2868 03ec 002B     		cmp	r3, #0
 2869 03ee 04D0     		beq	.L130
 583:bluetooth_rxtx.c **** 			HGM_SET;
 2870              		.loc 1 583 0
 2871 03f0 894B     		ldr	r3, .L165+4
 2872 03f2 4FF48072 		mov	r2, #256
 2873 03f6 1A60     		str	r2, [r3]
 584:bluetooth_rxtx.c **** 		else
 585:bluetooth_rxtx.c **** 			HGM_CLR;
 586:bluetooth_rxtx.c **** 		break;
 2874              		.loc 1 586 0
 2875 03f8 65E3     		b	.L119
 2876              	.L130:
 585:bluetooth_rxtx.c **** 		break;
 2877              		.loc 1 585 0
 2878 03fa 884B     		ldr	r3, .L165+8
 2879 03fc 4FF48072 		mov	r2, #256
 2880 0400 1A60     		str	r2, [r3]
 2881              		.loc 1 586 0
 2882 0402 60E3     		b	.L119
 2883              	.L80:
 587:bluetooth_rxtx.c **** #endif
 588:bluetooth_rxtx.c **** 
 589:bluetooth_rxtx.c **** #ifdef TX_ENABLE
 590:bluetooth_rxtx.c **** 	case UBERTOOTH_TX_TEST:
 591:bluetooth_rxtx.c **** 		requested_mode = MODE_TX_TEST;
 2884              		.loc 1 591 0
 2885 0404 864B     		ldr	r3, .L165+12
 2886 0406 0322     		movs	r2, #3
 2887 0408 1A70     		strb	r2, [r3]
 592:bluetooth_rxtx.c **** 		break;
 2888              		.loc 1 592 0
 2889 040a 5CE3     		b	.L119
 2890              	.L87:
 593:bluetooth_rxtx.c **** 
 594:bluetooth_rxtx.c **** 	case UBERTOOTH_GET_PALEVEL:
 595:bluetooth_rxtx.c **** 		data[0] = cc2400_get(FREND) & 0x7;
 2891              		.loc 1 595 0
 2892 040c 0520     		movs	r0, #5
 2893 040e FFF7FEFF 		bl	cc2400_get
 2894 0412 0346     		mov	r3, r0
 2895 0414 DBB2     		uxtb	r3, r3
 2896 0416 03F00703 		and	r3, r3, #7
 2897 041a DAB2     		uxtb	r2, r3
 2898 041c 7B68     		ldr	r3, [r7, #4]
 2899 041e 1A70     		strb	r2, [r3]
 596:bluetooth_rxtx.c **** 		*data_len = 1;
 2900              		.loc 1 596 0
ARM GAS  /tmp/ccHz27EZ.s 			page 61


 2901 0420 3B68     		ldr	r3, [r7]
 2902 0422 0122     		movs	r2, #1
 2903 0424 1A60     		str	r2, [r3]
 597:bluetooth_rxtx.c **** 		break;
 2904              		.loc 1 597 0
 2905 0426 4EE3     		b	.L119
 2906              	.L88:
 598:bluetooth_rxtx.c **** 
 599:bluetooth_rxtx.c **** 	case UBERTOOTH_SET_PALEVEL:
 600:bluetooth_rxtx.c **** 		if( request_params[0] < 8 ) {
 2907              		.loc 1 600 0
 2908 0428 BB68     		ldr	r3, [r7, #8]
 2909 042a 1B88     		ldrh	r3, [r3]
 2910 042c 072B     		cmp	r3, #7
 2911 042e 09D8     		bhi	.L132
 601:bluetooth_rxtx.c **** 			cc2400_set(FREND, 8 | request_params[0]);
 2912              		.loc 1 601 0
 2913 0430 BB68     		ldr	r3, [r7, #8]
 2914 0432 1B88     		ldrh	r3, [r3]
 2915 0434 43F00803 		orr	r3, r3, #8
 2916 0438 9BB2     		uxth	r3, r3
 2917 043a 0520     		movs	r0, #5
 2918 043c 1946     		mov	r1, r3
 2919 043e FFF7FEFF 		bl	cc2400_set
 602:bluetooth_rxtx.c **** 		} else {
 603:bluetooth_rxtx.c **** 			return 0;
 604:bluetooth_rxtx.c **** 		}
 605:bluetooth_rxtx.c **** 		break;
 2920              		.loc 1 605 0
 2921 0442 40E3     		b	.L119
 2922              	.L132:
 603:bluetooth_rxtx.c **** 		}
 2923              		.loc 1 603 0
 2924 0444 0023     		movs	r3, #0
 2925 0446 3FE3     		b	.L161
 2926              	.L90:
 606:bluetooth_rxtx.c **** 
 607:bluetooth_rxtx.c **** 	case UBERTOOTH_RANGE_TEST:
 608:bluetooth_rxtx.c **** 		requested_mode = MODE_RANGE_TEST;
 2927              		.loc 1 608 0
 2928 0448 754B     		ldr	r3, .L165+12
 2929 044a 0522     		movs	r2, #5
 2930 044c 1A70     		strb	r2, [r3]
 609:bluetooth_rxtx.c **** 		break;
 2931              		.loc 1 609 0
 2932 044e 3AE3     		b	.L119
 2933              	.L89:
 610:bluetooth_rxtx.c **** 
 611:bluetooth_rxtx.c **** 	case UBERTOOTH_REPEATER:
 612:bluetooth_rxtx.c **** 		requested_mode = MODE_REPEATER;
 2934              		.loc 1 612 0
 2935 0450 734B     		ldr	r3, .L165+12
 2936 0452 0622     		movs	r2, #6
 2937 0454 1A70     		strb	r2, [r3]
 613:bluetooth_rxtx.c **** 		break;
 2938              		.loc 1 613 0
 2939 0456 36E3     		b	.L119
ARM GAS  /tmp/ccHz27EZ.s 			page 62


 2940              	.L91:
 614:bluetooth_rxtx.c **** #endif
 615:bluetooth_rxtx.c **** 
 616:bluetooth_rxtx.c **** 	case UBERTOOTH_RANGE_CHECK:
 617:bluetooth_rxtx.c **** 		data[0] = rr.valid;
 2941              		.loc 1 617 0
 2942 0458 724B     		ldr	r3, .L165+16
 2943 045a 1A78     		ldrb	r2, [r3]	@ zero_extendqisi2
 2944 045c 7B68     		ldr	r3, [r7, #4]
 2945 045e 1A70     		strb	r2, [r3]
 618:bluetooth_rxtx.c **** 		data[1] = rr.request_pa;
 2946              		.loc 1 618 0
 2947 0460 7B68     		ldr	r3, [r7, #4]
 2948 0462 0133     		adds	r3, r3, #1
 2949 0464 6F4A     		ldr	r2, .L165+16
 2950 0466 5278     		ldrb	r2, [r2, #1]	@ zero_extendqisi2
 2951 0468 1A70     		strb	r2, [r3]
 619:bluetooth_rxtx.c **** 		data[2] = rr.request_num;
 2952              		.loc 1 619 0
 2953 046a 7B68     		ldr	r3, [r7, #4]
 2954 046c 0233     		adds	r3, r3, #2
 2955 046e 6D4A     		ldr	r2, .L165+16
 2956 0470 9278     		ldrb	r2, [r2, #2]	@ zero_extendqisi2
 2957 0472 1A70     		strb	r2, [r3]
 620:bluetooth_rxtx.c **** 		data[3] = rr.reply_pa;
 2958              		.loc 1 620 0
 2959 0474 7B68     		ldr	r3, [r7, #4]
 2960 0476 0333     		adds	r3, r3, #3
 2961 0478 6A4A     		ldr	r2, .L165+16
 2962 047a D278     		ldrb	r2, [r2, #3]	@ zero_extendqisi2
 2963 047c 1A70     		strb	r2, [r3]
 621:bluetooth_rxtx.c **** 		data[4] = rr.reply_num;
 2964              		.loc 1 621 0
 2965 047e 7B68     		ldr	r3, [r7, #4]
 2966 0480 0433     		adds	r3, r3, #4
 2967 0482 684A     		ldr	r2, .L165+16
 2968 0484 1279     		ldrb	r2, [r2, #4]	@ zero_extendqisi2
 2969 0486 1A70     		strb	r2, [r3]
 622:bluetooth_rxtx.c **** 		*data_len = 5;
 2970              		.loc 1 622 0
 2971 0488 3B68     		ldr	r3, [r7]
 2972 048a 0522     		movs	r2, #5
 2973 048c 1A60     		str	r2, [r3]
 623:bluetooth_rxtx.c **** 		break;
 2974              		.loc 1 623 0
 2975 048e 1AE3     		b	.L119
 2976              	.L81:
 624:bluetooth_rxtx.c **** 
 625:bluetooth_rxtx.c **** 	case UBERTOOTH_STOP:
 626:bluetooth_rxtx.c **** 		requested_mode = MODE_IDLE;
 2977              		.loc 1 626 0
 2978 0490 634B     		ldr	r3, .L165+12
 2979 0492 0022     		movs	r2, #0
 2980 0494 1A70     		strb	r2, [r3]
 627:bluetooth_rxtx.c **** 		break;
 2981              		.loc 1 627 0
 2982 0496 16E3     		b	.L119
ARM GAS  /tmp/ccHz27EZ.s 			page 63


 2983              	.L82:
 628:bluetooth_rxtx.c **** 
 629:bluetooth_rxtx.c **** 	case UBERTOOTH_GET_MOD:
 630:bluetooth_rxtx.c **** 		data[0] = modulation;
 2984              		.loc 1 630 0
 2985 0498 634B     		ldr	r3, .L165+20
 2986 049a 1B78     		ldrb	r3, [r3]
 2987 049c DAB2     		uxtb	r2, r3
 2988 049e 7B68     		ldr	r3, [r7, #4]
 2989 04a0 1A70     		strb	r2, [r3]
 631:bluetooth_rxtx.c **** 		*data_len = 1;
 2990              		.loc 1 631 0
 2991 04a2 3B68     		ldr	r3, [r7]
 2992 04a4 0122     		movs	r2, #1
 2993 04a6 1A60     		str	r2, [r3]
 632:bluetooth_rxtx.c **** 		break;
 2994              		.loc 1 632 0
 2995 04a8 0DE3     		b	.L119
 2996              	.L83:
 633:bluetooth_rxtx.c **** 
 634:bluetooth_rxtx.c **** 	case UBERTOOTH_SET_MOD:
 635:bluetooth_rxtx.c **** 		modulation = request_params[0];
 2997              		.loc 1 635 0
 2998 04aa BB68     		ldr	r3, [r7, #8]
 2999 04ac 1B88     		ldrh	r3, [r3]
 3000 04ae DAB2     		uxtb	r2, r3
 3001 04b0 5D4B     		ldr	r3, .L165+20
 3002 04b2 1A70     		strb	r2, [r3]
 636:bluetooth_rxtx.c **** 		break;
 3003              		.loc 1 636 0
 3004 04b4 07E3     		b	.L119
 3005              	.L71:
 637:bluetooth_rxtx.c **** 
 638:bluetooth_rxtx.c **** 	case UBERTOOTH_GET_CHANNEL:
 639:bluetooth_rxtx.c **** 		data[0] = channel & 0xFF;
 3006              		.loc 1 639 0
 3007 04b6 5D4B     		ldr	r3, .L165+24
 3008 04b8 1B88     		ldrh	r3, [r3]	@ movhi
 3009 04ba 9BB2     		uxth	r3, r3
 3010 04bc DAB2     		uxtb	r2, r3
 3011 04be 7B68     		ldr	r3, [r7, #4]
 3012 04c0 1A70     		strb	r2, [r3]
 640:bluetooth_rxtx.c **** 		data[1] = (channel >> 8) & 0xFF;
 3013              		.loc 1 640 0
 3014 04c2 7B68     		ldr	r3, [r7, #4]
 3015 04c4 0133     		adds	r3, r3, #1
 3016 04c6 594A     		ldr	r2, .L165+24
 3017 04c8 1288     		ldrh	r2, [r2]	@ movhi
 3018 04ca 92B2     		uxth	r2, r2
 3019 04cc 120A     		lsrs	r2, r2, #8
 3020 04ce 92B2     		uxth	r2, r2
 3021 04d0 D2B2     		uxtb	r2, r2
 3022 04d2 1A70     		strb	r2, [r3]
 641:bluetooth_rxtx.c **** 		*data_len = 2;
 3023              		.loc 1 641 0
 3024 04d4 3B68     		ldr	r3, [r7]
 3025 04d6 0222     		movs	r2, #2
ARM GAS  /tmp/ccHz27EZ.s 			page 64


 3026 04d8 1A60     		str	r2, [r3]
 642:bluetooth_rxtx.c **** 		break;
 3027              		.loc 1 642 0
 3028 04da F4E2     		b	.L119
 3029              	.L72:
 643:bluetooth_rxtx.c **** 
 644:bluetooth_rxtx.c **** 	case UBERTOOTH_SET_CHANNEL:
 645:bluetooth_rxtx.c **** 		requested_channel = request_params[0];
 3030              		.loc 1 645 0
 3031 04dc BB68     		ldr	r3, [r7, #8]
 3032 04de 1A88     		ldrh	r2, [r3]
 3033 04e0 534B     		ldr	r3, .L165+28
 3034 04e2 1A80     		strh	r2, [r3]	@ movhi
 646:bluetooth_rxtx.c **** 		/* bluetooth band sweep mode, start at channel 2402 */
 647:bluetooth_rxtx.c **** 		if (requested_channel > MAX_FREQ) {
 3035              		.loc 1 647 0
 3036 04e4 524B     		ldr	r3, .L165+28
 3037 04e6 1B88     		ldrh	r3, [r3]	@ movhi
 3038 04e8 9BB2     		uxth	r3, r3
 3039 04ea 40F6EA22 		movw	r2, #2794
 3040 04ee 9342     		cmp	r3, r2
 3041 04f0 07D9     		bls	.L135
 648:bluetooth_rxtx.c **** 			hop_mode = HOP_SWEEP;
 3042              		.loc 1 648 0
 3043 04f2 504B     		ldr	r3, .L165+32
 3044 04f4 0122     		movs	r2, #1
 3045 04f6 1A70     		strb	r2, [r3]
 649:bluetooth_rxtx.c **** 			requested_channel = 2402;
 3046              		.loc 1 649 0
 3047 04f8 4D4B     		ldr	r3, .L165+28
 3048 04fa 40F66212 		movw	r2, #2402
 3049 04fe 1A80     		strh	r2, [r3]	@ movhi
 3050 0500 20E0     		b	.L136
 3051              	.L135:
 650:bluetooth_rxtx.c **** 		}
 651:bluetooth_rxtx.c **** 		/* fixed channel mode, can be outside bluetooth band */
 652:bluetooth_rxtx.c **** 		else {
 653:bluetooth_rxtx.c **** 			hop_mode = HOP_NONE;
 3052              		.loc 1 653 0
 3053 0502 4C4B     		ldr	r3, .L165+32
 3054 0504 0022     		movs	r2, #0
 3055 0506 1A70     		strb	r2, [r3]
 654:bluetooth_rxtx.c **** 			requested_channel = MAX(requested_channel, MIN_FREQ);
 3056              		.loc 1 654 0
 3057 0508 494B     		ldr	r3, .L165+28
 3058 050a 1B88     		ldrh	r3, [r3]	@ movhi
 3059 050c 9BB2     		uxth	r3, r3
 3060 050e 40F6DC02 		movw	r2, #2268
 3061 0512 9342     		cmp	r3, r2
 3062 0514 03D9     		bls	.L137
 3063              		.loc 1 654 0 is_stmt 0 discriminator 1
 3064 0516 464B     		ldr	r3, .L165+28
 3065 0518 1B88     		ldrh	r3, [r3]	@ movhi
 3066 051a 9BB2     		uxth	r3, r3
 3067 051c 01E0     		b	.L138
 3068              	.L137:
 3069              		.loc 1 654 0 discriminator 2
ARM GAS  /tmp/ccHz27EZ.s 			page 65


 3070 051e 40F6DC03 		movw	r3, #2268
 3071              	.L138:
 3072              		.loc 1 654 0 discriminator 4
 3073 0522 434A     		ldr	r2, .L165+28
 3074 0524 1380     		strh	r3, [r2]	@ movhi
 655:bluetooth_rxtx.c **** 			requested_channel = MIN(requested_channel, MAX_FREQ);
 3075              		.loc 1 655 0 is_stmt 1 discriminator 4
 3076 0526 424B     		ldr	r3, .L165+28
 3077 0528 1B88     		ldrh	r3, [r3]	@ movhi
 3078 052a 9BB2     		uxth	r3, r3
 3079 052c 40F6E922 		movw	r2, #2793
 3080 0530 9342     		cmp	r3, r2
 3081 0532 03D8     		bhi	.L139
 3082              		.loc 1 655 0 is_stmt 0 discriminator 1
 3083 0534 3E4B     		ldr	r3, .L165+28
 3084 0536 1B88     		ldrh	r3, [r3]	@ movhi
 3085 0538 9BB2     		uxth	r3, r3
 3086 053a 01E0     		b	.L140
 3087              	.L139:
 3088              		.loc 1 655 0 discriminator 2
 3089 053c 40F6EA23 		movw	r3, #2794
 3090              	.L140:
 3091              		.loc 1 655 0 discriminator 4
 3092 0540 3B4A     		ldr	r2, .L165+28
 3093 0542 1380     		strh	r3, [r2]	@ movhi
 3094              	.L136:
 656:bluetooth_rxtx.c **** 		}
 657:bluetooth_rxtx.c **** 
 658:bluetooth_rxtx.c **** 		if (mode != MODE_BT_FOLLOW_LE) {
 3095              		.loc 1 658 0 is_stmt 1
 3096 0544 3C4B     		ldr	r3, .L165+36
 3097 0546 1B78     		ldrb	r3, [r3]
 3098 0548 DBB2     		uxtb	r3, r3
 3099 054a 092B     		cmp	r3, #9
 3100 054c 0AD0     		beq	.L141
 659:bluetooth_rxtx.c **** 			channel = requested_channel;
 3101              		.loc 1 659 0
 3102 054e 384B     		ldr	r3, .L165+28
 3103 0550 1B88     		ldrh	r3, [r3]	@ movhi
 3104 0552 9AB2     		uxth	r2, r3
 3105 0554 354B     		ldr	r3, .L165+24
 3106 0556 1A80     		strh	r2, [r3]	@ movhi
 660:bluetooth_rxtx.c **** 			requested_channel = 0;
 3107              		.loc 1 660 0
 3108 0558 354B     		ldr	r3, .L165+28
 3109 055a 0022     		movs	r2, #0
 3110 055c 1A80     		strh	r2, [r3]	@ movhi
 661:bluetooth_rxtx.c **** 
 662:bluetooth_rxtx.c **** 			/* CS threshold is mode-dependent. Update it after
 663:bluetooth_rxtx.c **** 			 * possible mode change. TODO - kludgy. */
 664:bluetooth_rxtx.c **** 			cs_threshold_calc_and_set();
 3111              		.loc 1 664 0
 3112 055e FFF7FEFF 		bl	cs_threshold_calc_and_set
 665:bluetooth_rxtx.c **** 		}
 666:bluetooth_rxtx.c **** 		break;
 3113              		.loc 1 666 0
 3114 0562 B0E2     		b	.L119
ARM GAS  /tmp/ccHz27EZ.s 			page 66


 3115              	.L141:
 3116 0564 AFE2     		b	.L119
 3117              	.L84:
 667:bluetooth_rxtx.c **** 
 668:bluetooth_rxtx.c **** 	case UBERTOOTH_SET_ISP:
 669:bluetooth_rxtx.c **** 		command[0] = 57;
 3118              		.loc 1 669 0
 3119 0566 3923     		movs	r3, #57
 3120 0568 7B62     		str	r3, [r7, #36]
 670:bluetooth_rxtx.c **** 		iap_entry(command, result);
 3121              		.loc 1 670 0
 3122 056a 344B     		ldr	r3, .L165+40
 3123 056c 1B68     		ldr	r3, [r3]
 3124 056e 07F12401 		add	r1, r7, #36
 3125 0572 07F11002 		add	r2, r7, #16
 3126 0576 0846     		mov	r0, r1
 3127 0578 1146     		mov	r1, r2
 3128 057a 9847     		blx	r3
 671:bluetooth_rxtx.c **** 		*data_len = 0; /* should never return */
 3129              		.loc 1 671 0
 3130 057c 3B68     		ldr	r3, [r7]
 3131 057e 0022     		movs	r2, #0
 3132 0580 1A60     		str	r2, [r3]
 672:bluetooth_rxtx.c **** 		break;
 3133              		.loc 1 672 0
 3134 0582 A0E2     		b	.L119
 3135              	.L85:
 673:bluetooth_rxtx.c **** 
 674:bluetooth_rxtx.c **** 	case UBERTOOTH_FLASH:
 675:bluetooth_rxtx.c **** 		bootloader_ctrl = DFU_MODE;
 3136              		.loc 1 675 0
 3137 0584 2E4B     		ldr	r3, .L165+44
 3138 0586 2F4A     		ldr	r2, .L165+48
 3139 0588 1A60     		str	r2, [r3]
 676:bluetooth_rxtx.c **** 		reset();
 3140              		.loc 1 676 0
 3141 058a FFF7FEFF 		bl	reset
 677:bluetooth_rxtx.c **** 		break;
 3142              		.loc 1 677 0
 3143 058e 9AE2     		b	.L119
 3144              	.L86:
 678:bluetooth_rxtx.c **** 
 679:bluetooth_rxtx.c **** 	case UBERTOOTH_SPECAN:
 680:bluetooth_rxtx.c **** 		if (request_params[0] < 2049 || request_params[0] > 3072 || 
 3145              		.loc 1 680 0
 3146 0590 BB68     		ldr	r3, [r7, #8]
 3147 0592 1B88     		ldrh	r3, [r3]
 3148 0594 B3F5006F 		cmp	r3, #2048
 3149 0598 17D9     		bls	.L142
 3150              		.loc 1 680 0 is_stmt 0 discriminator 1
 3151 059a BB68     		ldr	r3, [r7, #8]
 3152 059c 1B88     		ldrh	r3, [r3]
 3153 059e B3F5406F 		cmp	r3, #3072
 3154 05a2 12D8     		bhi	.L142
 681:bluetooth_rxtx.c **** 				request_params[1] < 2049 || request_params[1] > 3072 ||
 3155              		.loc 1 681 0 is_stmt 1 discriminator 2
 3156 05a4 BB68     		ldr	r3, [r7, #8]
ARM GAS  /tmp/ccHz27EZ.s 			page 67


 3157 05a6 0233     		adds	r3, r3, #2
 3158 05a8 1B88     		ldrh	r3, [r3]
 680:bluetooth_rxtx.c **** 				request_params[1] < 2049 || request_params[1] > 3072 ||
 3159              		.loc 1 680 0 discriminator 2
 3160 05aa B3F5006F 		cmp	r3, #2048
 3161 05ae 0CD9     		bls	.L142
 3162              		.loc 1 681 0
 3163 05b0 BB68     		ldr	r3, [r7, #8]
 3164 05b2 0233     		adds	r3, r3, #2
 3165 05b4 1B88     		ldrh	r3, [r3]
 3166 05b6 B3F5406F 		cmp	r3, #3072
 3167 05ba 06D8     		bhi	.L142
 682:bluetooth_rxtx.c **** 				request_params[1] < request_params[0])
 3168              		.loc 1 682 0 discriminator 1
 3169 05bc BB68     		ldr	r3, [r7, #8]
 3170 05be 0233     		adds	r3, r3, #2
 3171 05c0 1A88     		ldrh	r2, [r3]
 3172 05c2 BB68     		ldr	r3, [r7, #8]
 3173 05c4 1B88     		ldrh	r3, [r3]
 681:bluetooth_rxtx.c **** 				request_params[1] < 2049 || request_params[1] > 3072 ||
 3174              		.loc 1 681 0 discriminator 1
 3175 05c6 9A42     		cmp	r2, r3
 3176 05c8 01D2     		bcs	.L143
 3177              	.L142:
 683:bluetooth_rxtx.c **** 			return 0;
 3178              		.loc 1 683 0
 3179 05ca 0023     		movs	r3, #0
 3180 05cc 7CE2     		b	.L161
 3181              	.L143:
 684:bluetooth_rxtx.c **** 		low_freq = request_params[0];
 3182              		.loc 1 684 0
 3183 05ce BB68     		ldr	r3, [r7, #8]
 3184 05d0 1A88     		ldrh	r2, [r3]
 3185 05d2 1D4B     		ldr	r3, .L165+52
 3186 05d4 1A80     		strh	r2, [r3]	@ movhi
 685:bluetooth_rxtx.c **** 		high_freq = request_params[1];
 3187              		.loc 1 685 0
 3188 05d6 BB68     		ldr	r3, [r7, #8]
 3189 05d8 5A88     		ldrh	r2, [r3, #2]
 3190 05da 1C4B     		ldr	r3, .L165+56
 3191 05dc 1A80     		strh	r2, [r3]	@ movhi
 686:bluetooth_rxtx.c **** 		requested_mode = MODE_SPECAN;
 3192              		.loc 1 686 0
 3193 05de 104B     		ldr	r3, .L165+12
 3194 05e0 0422     		movs	r2, #4
 3195 05e2 1A70     		strb	r2, [r3]
 687:bluetooth_rxtx.c **** 		*data_len = 0;
 3196              		.loc 1 687 0
 3197 05e4 3B68     		ldr	r3, [r7]
 3198 05e6 0022     		movs	r2, #0
 3199 05e8 1A60     		str	r2, [r3]
 688:bluetooth_rxtx.c **** 		break;
 3200              		.loc 1 688 0
 3201 05ea 6CE2     		b	.L119
 3202              	.L93:
 689:bluetooth_rxtx.c **** 
 690:bluetooth_rxtx.c **** 	case UBERTOOTH_LED_SPECAN:
ARM GAS  /tmp/ccHz27EZ.s 			page 68


 691:bluetooth_rxtx.c **** 		if (request_params[0] > 256)
 3203              		.loc 1 691 0
 3204 05ec BB68     		ldr	r3, [r7, #8]
 3205 05ee 1B88     		ldrh	r3, [r3]
 3206 05f0 B3F5807F 		cmp	r3, #256
 3207 05f4 01D9     		bls	.L144
 692:bluetooth_rxtx.c **** 			return 0;
 3208              		.loc 1 692 0
 3209 05f6 0023     		movs	r3, #0
 3210 05f8 66E2     		b	.L161
 3211              	.L144:
 693:bluetooth_rxtx.c **** 		rssi_threshold = (int8_t)request_params[0];
 3212              		.loc 1 693 0
 3213 05fa BB68     		ldr	r3, [r7, #8]
 3214 05fc 1B88     		ldrh	r3, [r3]
 3215 05fe DAB2     		uxtb	r2, r3
 3216 0600 134B     		ldr	r3, .L165+60
 3217 0602 1A70     		strb	r2, [r3]
 694:bluetooth_rxtx.c **** 		requested_mode = MODE_LED_SPECAN;
 3218              		.loc 1 694 0
 3219 0604 064B     		ldr	r3, .L165+12
 3220 0606 0722     		movs	r2, #7
 3221 0608 1A70     		strb	r2, [r3]
 695:bluetooth_rxtx.c **** 		*data_len = 0;
 3222              		.loc 1 695 0
 3223 060a 3B68     		ldr	r3, [r7]
 3224 060c 0022     		movs	r2, #0
 3225 060e 1A60     		str	r2, [r3]
 696:bluetooth_rxtx.c **** 		break;
 3226              		.loc 1 696 0
 3227 0610 59E2     		b	.L119
 3228              	.L166:
 3229 0612 00BF     		.align	2
 3230              	.L165:
 3231 0614 54C00920 		.word	537509972
 3232 0618 58C00920 		.word	537509976
 3233 061c 5CC00920 		.word	537509980
 3234 0620 00000000 		.word	requested_mode
 3235 0624 00000000 		.word	rr
 3236 0628 00000000 		.word	modulation
 3237 062c 00000000 		.word	channel
 3238 0630 00000000 		.word	requested_channel
 3239 0634 00000000 		.word	hop_mode
 3240 0638 00000000 		.word	mode
 3241 063c 00000000 		.word	iap_entry
 3242 0640 00000000 		.word	bootloader_ctrl
 3243 0644 21BB0543 		.word	1124449057
 3244 0648 00000000 		.word	low_freq
 3245 064c 00000000 		.word	high_freq
 3246 0650 00000000 		.word	rssi_threshold
 3247              	.L92:
 697:bluetooth_rxtx.c **** 
 698:bluetooth_rxtx.c **** 	case UBERTOOTH_GET_REV_NUM:
 699:bluetooth_rxtx.c **** 		data[0] = 0x00;
 3248              		.loc 1 699 0
 3249 0654 7B68     		ldr	r3, [r7, #4]
 3250 0656 0022     		movs	r2, #0
ARM GAS  /tmp/ccHz27EZ.s 			page 69


 3251 0658 1A70     		strb	r2, [r3]
 700:bluetooth_rxtx.c **** 		data[1] = 0x00;
 3252              		.loc 1 700 0
 3253 065a 7B68     		ldr	r3, [r7, #4]
 3254 065c 0133     		adds	r3, r3, #1
 3255 065e 0022     		movs	r2, #0
 3256 0660 1A70     		strb	r2, [r3]
 701:bluetooth_rxtx.c **** 
 702:bluetooth_rxtx.c **** 		length = (u8)strlen(GIT_REVISION);
 3257              		.loc 1 702 0
 3258 0662 A448     		ldr	r0, .L167
 3259 0664 FFF7FEFF 		bl	strlen
 3260 0668 0346     		mov	r3, r0
 3261 066a 87F84330 		strb	r3, [r7, #67]
 703:bluetooth_rxtx.c **** 		data[2] = length;
 3262              		.loc 1 703 0
 3263 066e 7B68     		ldr	r3, [r7, #4]
 3264 0670 0233     		adds	r3, r3, #2
 3265 0672 97F84320 		ldrb	r2, [r7, #67]
 3266 0676 1A70     		strb	r2, [r3]
 704:bluetooth_rxtx.c **** 
 705:bluetooth_rxtx.c **** 		memcpy(&data[3], GIT_REVISION, length);
 3267              		.loc 1 705 0
 3268 0678 7B68     		ldr	r3, [r7, #4]
 3269 067a DA1C     		adds	r2, r3, #3
 3270 067c 97F84330 		ldrb	r3, [r7, #67]	@ zero_extendqisi2
 3271 0680 1046     		mov	r0, r2
 3272 0682 9C49     		ldr	r1, .L167
 3273 0684 1A46     		mov	r2, r3
 3274 0686 FFF7FEFF 		bl	memcpy
 706:bluetooth_rxtx.c **** 
 707:bluetooth_rxtx.c **** 		*data_len = 2 + 1 + length;
 3275              		.loc 1 707 0
 3276 068a 97F84330 		ldrb	r3, [r7, #67]	@ zero_extendqisi2
 3277 068e DA1C     		adds	r2, r3, #3
 3278 0690 3B68     		ldr	r3, [r7]
 3279 0692 1A60     		str	r2, [r3]
 708:bluetooth_rxtx.c **** 		break;
 3280              		.loc 1 708 0
 3281 0694 17E2     		b	.L119
 3282              	.L114:
 709:bluetooth_rxtx.c **** 
 710:bluetooth_rxtx.c **** 	case UBERTOOTH_GET_COMPILE_INFO:
 711:bluetooth_rxtx.c **** 		length = (u8)strlen(compile_info);
 3283              		.loc 1 711 0
 3284 0696 9848     		ldr	r0, .L167+4
 3285 0698 FFF7FEFF 		bl	strlen
 3286 069c 0346     		mov	r3, r0
 3287 069e 87F84330 		strb	r3, [r7, #67]
 712:bluetooth_rxtx.c **** 		data[0] = length;
 3288              		.loc 1 712 0
 3289 06a2 7B68     		ldr	r3, [r7, #4]
 3290 06a4 97F84320 		ldrb	r2, [r7, #67]
 3291 06a8 1A70     		strb	r2, [r3]
 713:bluetooth_rxtx.c **** 		memcpy(&data[1], compile_info, length);
 3292              		.loc 1 713 0
 3293 06aa 7B68     		ldr	r3, [r7, #4]
ARM GAS  /tmp/ccHz27EZ.s 			page 70


 3294 06ac 5A1C     		adds	r2, r3, #1
 3295 06ae 97F84330 		ldrb	r3, [r7, #67]	@ zero_extendqisi2
 3296 06b2 1046     		mov	r0, r2
 3297 06b4 9049     		ldr	r1, .L167+4
 3298 06b6 1A46     		mov	r2, r3
 3299 06b8 FFF7FEFF 		bl	memcpy
 714:bluetooth_rxtx.c **** 		*data_len = 1 + length;
 3300              		.loc 1 714 0
 3301 06bc 97F84330 		ldrb	r3, [r7, #67]	@ zero_extendqisi2
 3302 06c0 5A1C     		adds	r2, r3, #1
 3303 06c2 3B68     		ldr	r3, [r7]
 3304 06c4 1A60     		str	r2, [r3]
 715:bluetooth_rxtx.c **** 		break;
 3305              		.loc 1 715 0
 3306 06c6 FEE1     		b	.L119
 3307              	.L94:
 716:bluetooth_rxtx.c **** 
 717:bluetooth_rxtx.c **** 	case UBERTOOTH_GET_BOARD_ID:
 718:bluetooth_rxtx.c **** 		data[0] = BOARD_ID;
 3308              		.loc 1 718 0
 3309 06c8 7B68     		ldr	r3, [r7, #4]
 3310 06ca 0122     		movs	r2, #1
 3311 06cc 1A70     		strb	r2, [r3]
 719:bluetooth_rxtx.c **** 		*data_len = 1;
 3312              		.loc 1 719 0
 3313 06ce 3B68     		ldr	r3, [r7]
 3314 06d0 0122     		movs	r2, #1
 3315 06d2 1A60     		str	r2, [r3]
 720:bluetooth_rxtx.c **** 		break;
 3316              		.loc 1 720 0
 3317 06d4 F7E1     		b	.L119
 3318              	.L95:
 721:bluetooth_rxtx.c **** 
 722:bluetooth_rxtx.c **** 	case UBERTOOTH_SET_SQUELCH:
 723:bluetooth_rxtx.c **** 		cs_threshold_req = (int8_t)request_params[0];
 3319              		.loc 1 723 0
 3320 06d6 BB68     		ldr	r3, [r7, #8]
 3321 06d8 1B88     		ldrh	r3, [r3]
 3322 06da DAB2     		uxtb	r2, r3
 3323 06dc 874B     		ldr	r3, .L167+8
 3324 06de 1A70     		strb	r2, [r3]
 724:bluetooth_rxtx.c **** 		cs_threshold_calc_and_set();
 3325              		.loc 1 724 0
 3326 06e0 FFF7FEFF 		bl	cs_threshold_calc_and_set
 725:bluetooth_rxtx.c **** 		break;
 3327              		.loc 1 725 0
 3328 06e4 EFE1     		b	.L119
 3329              	.L96:
 726:bluetooth_rxtx.c **** 
 727:bluetooth_rxtx.c **** 	case UBERTOOTH_GET_SQUELCH:
 728:bluetooth_rxtx.c **** 		data[0] = cs_threshold_req;
 3330              		.loc 1 728 0
 3331 06e6 854B     		ldr	r3, .L167+8
 3332 06e8 1B78     		ldrb	r3, [r3]	@ zero_extendqisi2
 3333 06ea DAB2     		uxtb	r2, r3
 3334 06ec 7B68     		ldr	r3, [r7, #4]
 3335 06ee 1A70     		strb	r2, [r3]
ARM GAS  /tmp/ccHz27EZ.s 			page 71


 729:bluetooth_rxtx.c **** 		*data_len = 1;
 3336              		.loc 1 729 0
 3337 06f0 3B68     		ldr	r3, [r7]
 3338 06f2 0122     		movs	r2, #1
 3339 06f4 1A60     		str	r2, [r3]
 730:bluetooth_rxtx.c **** 		break;
 3340              		.loc 1 730 0
 3341 06f6 E6E1     		b	.L119
 3342              	.L97:
 731:bluetooth_rxtx.c **** 
 732:bluetooth_rxtx.c **** 	case UBERTOOTH_SET_BDADDR:
 733:bluetooth_rxtx.c **** 		target.address = 0;
 3343              		.loc 1 733 0
 3344 06f8 8149     		ldr	r1, .L167+12
 3345 06fa 4FF00002 		mov	r2, #0
 3346 06fe 4FF00003 		mov	r3, #0
 3347 0702 C1E90023 		strd	r2, [r1]
 734:bluetooth_rxtx.c **** 		target.access_code = 0;
 3348              		.loc 1 734 0
 3349 0706 7E49     		ldr	r1, .L167+12
 3350 0708 4FF00002 		mov	r2, #0
 3351 070c 4FF00003 		mov	r3, #0
 3352 0710 C1E90223 		strd	r2, [r1, #8]
 735:bluetooth_rxtx.c **** 		for(i=0; i < 8; i++) {
 3353              		.loc 1 735 0
 3354 0714 0023     		movs	r3, #0
 3355 0716 FB64     		str	r3, [r7, #76]
 3356 0718 25E0     		b	.L145
 3357              	.L146:
 736:bluetooth_rxtx.c **** 			target.address |= (uint64_t)data[i] << 8*i;
 3358              		.loc 1 736 0 discriminator 3
 3359 071a 794B     		ldr	r3, .L167+12
 3360 071c D3E900AB 		ldrd	r10, [r3]
 3361 0720 FB6C     		ldr	r3, [r7, #76]
 3362 0722 7A68     		ldr	r2, [r7, #4]
 3363 0724 1344     		add	r3, r3, r2
 3364 0726 1B78     		ldrb	r3, [r3]	@ zero_extendqisi2
 3365 0728 DAB2     		uxtb	r2, r3
 3366 072a 4FF00003 		mov	r3, #0
 3367 072e F96C     		ldr	r1, [r7, #76]
 3368 0730 C900     		lsls	r1, r1, #3
 3369 0732 A1F12006 		sub	r6, r1, #32
 3370 0736 C1F12000 		rsb	r0, r1, #32
 3371 073a 03FA01F9 		lsl	r9, r3, r1
 3372 073e 02FA06F6 		lsl	r6, r2, r6
 3373 0742 49EA0609 		orr	r9, r9, r6
 3374 0746 22FA00F0 		lsr	r0, r2, r0
 3375 074a 49EA0009 		orr	r9, r9, r0
 3376 074e 02FA01F8 		lsl	r8, r2, r1
 3377 0752 4AEA0802 		orr	r2, r10, r8
 3378 0756 4BEA0903 		orr	r3, fp, r9
 3379 075a 6949     		ldr	r1, .L167+12
 3380 075c C1E90023 		strd	r2, [r1]
 735:bluetooth_rxtx.c **** 		for(i=0; i < 8; i++) {
 3381              		.loc 1 735 0 discriminator 3
 3382 0760 FB6C     		ldr	r3, [r7, #76]
 3383 0762 0133     		adds	r3, r3, #1
ARM GAS  /tmp/ccHz27EZ.s 			page 72


 3384 0764 FB64     		str	r3, [r7, #76]
 3385              	.L145:
 735:bluetooth_rxtx.c **** 		for(i=0; i < 8; i++) {
 3386              		.loc 1 735 0 is_stmt 0 discriminator 1
 3387 0766 FB6C     		ldr	r3, [r7, #76]
 3388 0768 072B     		cmp	r3, #7
 3389 076a D6DD     		ble	.L146
 737:bluetooth_rxtx.c **** 		}
 738:bluetooth_rxtx.c **** 		for(i=0; i < 8; i++) {
 3390              		.loc 1 738 0 is_stmt 1
 3391 076c 0023     		movs	r3, #0
 3392 076e FB64     		str	r3, [r7, #76]
 3393 0770 24E0     		b	.L147
 3394              	.L148:
 739:bluetooth_rxtx.c **** 			target.access_code |= (uint64_t)data[i+8] << 8*i;
 3395              		.loc 1 739 0 discriminator 3
 3396 0772 634B     		ldr	r3, .L167+12
 3397 0774 D3E90289 		ldrd	r8, [r3, #8]
 3398 0778 FB6C     		ldr	r3, [r7, #76]
 3399 077a 0833     		adds	r3, r3, #8
 3400 077c 7A68     		ldr	r2, [r7, #4]
 3401 077e 1344     		add	r3, r3, r2
 3402 0780 1B78     		ldrb	r3, [r3]	@ zero_extendqisi2
 3403 0782 DAB2     		uxtb	r2, r3
 3404 0784 4FF00003 		mov	r3, #0
 3405 0788 F96C     		ldr	r1, [r7, #76]
 3406 078a C900     		lsls	r1, r1, #3
 3407 078c A1F12006 		sub	r6, r1, #32
 3408 0790 C1F12000 		rsb	r0, r1, #32
 3409 0794 03FA01F5 		lsl	r5, r3, r1
 3410 0798 02FA06F6 		lsl	r6, r2, r6
 3411 079c 3543     		orrs	r5, r5, r6
 3412 079e 22FA00F0 		lsr	r0, r2, r0
 3413 07a2 0543     		orrs	r5, r5, r0
 3414 07a4 02FA01F4 		lsl	r4, r2, r1
 3415 07a8 48EA0402 		orr	r2, r8, r4
 3416 07ac 49EA0503 		orr	r3, r9, r5
 3417 07b0 5349     		ldr	r1, .L167+12
 3418 07b2 C1E90223 		strd	r2, [r1, #8]
 738:bluetooth_rxtx.c **** 			target.access_code |= (uint64_t)data[i+8] << 8*i;
 3419              		.loc 1 738 0 discriminator 3
 3420 07b6 FB6C     		ldr	r3, [r7, #76]
 3421 07b8 0133     		adds	r3, r3, #1
 3422 07ba FB64     		str	r3, [r7, #76]
 3423              	.L147:
 738:bluetooth_rxtx.c **** 			target.access_code |= (uint64_t)data[i+8] << 8*i;
 3424              		.loc 1 738 0 is_stmt 0 discriminator 1
 3425 07bc FB6C     		ldr	r3, [r7, #76]
 3426 07be 072B     		cmp	r3, #7
 3427 07c0 D7DD     		ble	.L148
 740:bluetooth_rxtx.c **** 		}
 741:bluetooth_rxtx.c **** 		break;
 3428              		.loc 1 741 0 is_stmt 1
 3429 07c2 80E1     		b	.L119
 3430              	.L98:
 742:bluetooth_rxtx.c **** 
 743:bluetooth_rxtx.c **** 	case UBERTOOTH_START_HOPPING:
ARM GAS  /tmp/ccHz27EZ.s 			page 73


 744:bluetooth_rxtx.c **** 		clock_offset = 0;
 3431              		.loc 1 744 0
 3432 07c4 0023     		movs	r3, #0
 3433 07c6 BB64     		str	r3, [r7, #72]
 745:bluetooth_rxtx.c **** 		for(i=0; i < 4; i++) {
 3434              		.loc 1 745 0
 3435 07c8 0023     		movs	r3, #0
 3436 07ca FB64     		str	r3, [r7, #76]
 3437 07cc 0DE0     		b	.L149
 3438              	.L150:
 746:bluetooth_rxtx.c **** 			clock_offset <<= 8;
 3439              		.loc 1 746 0 discriminator 3
 3440 07ce BB6C     		ldr	r3, [r7, #72]
 3441 07d0 1B02     		lsls	r3, r3, #8
 3442 07d2 BB64     		str	r3, [r7, #72]
 747:bluetooth_rxtx.c **** 			clock_offset |= data[i];
 3443              		.loc 1 747 0 discriminator 3
 3444 07d4 FB6C     		ldr	r3, [r7, #76]
 3445 07d6 7A68     		ldr	r2, [r7, #4]
 3446 07d8 1344     		add	r3, r3, r2
 3447 07da 1B78     		ldrb	r3, [r3]	@ zero_extendqisi2
 3448 07dc 1A46     		mov	r2, r3
 3449 07de BB6C     		ldr	r3, [r7, #72]
 3450 07e0 1343     		orrs	r3, r3, r2
 3451 07e2 BB64     		str	r3, [r7, #72]
 745:bluetooth_rxtx.c **** 		for(i=0; i < 4; i++) {
 3452              		.loc 1 745 0 discriminator 3
 3453 07e4 FB6C     		ldr	r3, [r7, #76]
 3454 07e6 0133     		adds	r3, r3, #1
 3455 07e8 FB64     		str	r3, [r7, #76]
 3456              	.L149:
 745:bluetooth_rxtx.c **** 		for(i=0; i < 4; i++) {
 3457              		.loc 1 745 0 is_stmt 0 discriminator 1
 3458 07ea FB6C     		ldr	r3, [r7, #76]
 3459 07ec 032B     		cmp	r3, #3
 3460 07ee EEDD     		ble	.L150
 748:bluetooth_rxtx.c **** 		}
 749:bluetooth_rxtx.c **** 		clkn += clock_offset;
 3461              		.loc 1 749 0 is_stmt 1
 3462 07f0 444B     		ldr	r3, .L167+16
 3463 07f2 1A68     		ldr	r2, [r3]
 3464 07f4 BB6C     		ldr	r3, [r7, #72]
 3465 07f6 1344     		add	r3, r3, r2
 3466 07f8 424A     		ldr	r2, .L167+16
 3467 07fa 1360     		str	r3, [r2]
 750:bluetooth_rxtx.c **** 		hop_mode = HOP_BLUETOOTH;
 3468              		.loc 1 750 0
 3469 07fc 424B     		ldr	r3, .L167+20
 3470 07fe 0222     		movs	r2, #2
 3471 0800 1A70     		strb	r2, [r3]
 751:bluetooth_rxtx.c **** 		requested_mode = MODE_BT_FOLLOW;
 3472              		.loc 1 751 0
 3473 0802 424B     		ldr	r3, .L167+24
 3474 0804 0822     		movs	r2, #8
 3475 0806 1A70     		strb	r2, [r3]
 752:bluetooth_rxtx.c **** 		break;
 3476              		.loc 1 752 0
ARM GAS  /tmp/ccHz27EZ.s 			page 74


 3477 0808 5DE1     		b	.L119
 3478              	.L99:
 753:bluetooth_rxtx.c **** 
 754:bluetooth_rxtx.c **** 	case UBERTOOTH_SET_CLOCK:
 755:bluetooth_rxtx.c **** 		clock = data[0] | data[1] << 8 | data[2] << 16 | data[3] << 24;
 3479              		.loc 1 755 0
 3480 080a 7B68     		ldr	r3, [r7, #4]
 3481 080c 1B78     		ldrb	r3, [r3]	@ zero_extendqisi2
 3482 080e 1A46     		mov	r2, r3
 3483 0810 7B68     		ldr	r3, [r7, #4]
 3484 0812 0133     		adds	r3, r3, #1
 3485 0814 1B78     		ldrb	r3, [r3]	@ zero_extendqisi2
 3486 0816 1B02     		lsls	r3, r3, #8
 3487 0818 1A43     		orrs	r2, r2, r3
 3488 081a 7B68     		ldr	r3, [r7, #4]
 3489 081c 0233     		adds	r3, r3, #2
 3490 081e 1B78     		ldrb	r3, [r3]	@ zero_extendqisi2
 3491 0820 1B04     		lsls	r3, r3, #16
 3492 0822 1A43     		orrs	r2, r2, r3
 3493 0824 7B68     		ldr	r3, [r7, #4]
 3494 0826 0333     		adds	r3, r3, #3
 3495 0828 1B78     		ldrb	r3, [r3]	@ zero_extendqisi2
 3496 082a 1B06     		lsls	r3, r3, #24
 3497 082c 1343     		orrs	r3, r3, r2
 3498 082e FB63     		str	r3, [r7, #60]
 756:bluetooth_rxtx.c **** 		clkn = clock;
 3499              		.loc 1 756 0
 3500 0830 344A     		ldr	r2, .L167+16
 3501 0832 FB6B     		ldr	r3, [r7, #60]
 3502 0834 1360     		str	r3, [r2]
 757:bluetooth_rxtx.c **** 		cs_threshold_calc_and_set();
 3503              		.loc 1 757 0
 3504 0836 FFF7FEFF 		bl	cs_threshold_calc_and_set
 758:bluetooth_rxtx.c **** 		break;
 3505              		.loc 1 758 0
 3506 083a 44E1     		b	.L119
 3507              	.L110:
 759:bluetooth_rxtx.c **** 
 760:bluetooth_rxtx.c **** 	case UBERTOOTH_SET_AFHMAP:
 761:bluetooth_rxtx.c **** 		for(i=0; i < 10; i++) {
 3508              		.loc 1 761 0
 3509 083c 0023     		movs	r3, #0
 3510 083e FB64     		str	r3, [r7, #76]
 3511 0840 0BE0     		b	.L151
 3512              	.L152:
 762:bluetooth_rxtx.c **** 			afh_map[i] = data[i];
 3513              		.loc 1 762 0 discriminator 3
 3514 0842 FB6C     		ldr	r3, [r7, #76]
 3515 0844 7A68     		ldr	r2, [r7, #4]
 3516 0846 1344     		add	r3, r3, r2
 3517 0848 1978     		ldrb	r1, [r3]	@ zero_extendqisi2
 3518 084a 314A     		ldr	r2, .L167+28
 3519 084c FB6C     		ldr	r3, [r7, #76]
 3520 084e 1344     		add	r3, r3, r2
 3521 0850 0A46     		mov	r2, r1
 3522 0852 1A70     		strb	r2, [r3]
 761:bluetooth_rxtx.c **** 			afh_map[i] = data[i];
ARM GAS  /tmp/ccHz27EZ.s 			page 75


 3523              		.loc 1 761 0 discriminator 3
 3524 0854 FB6C     		ldr	r3, [r7, #76]
 3525 0856 0133     		adds	r3, r3, #1
 3526 0858 FB64     		str	r3, [r7, #76]
 3527              	.L151:
 761:bluetooth_rxtx.c **** 			afh_map[i] = data[i];
 3528              		.loc 1 761 0 is_stmt 0 discriminator 1
 3529 085a FB6C     		ldr	r3, [r7, #76]
 3530 085c 092B     		cmp	r3, #9
 3531 085e F0DD     		ble	.L152
 763:bluetooth_rxtx.c **** 		}
 764:bluetooth_rxtx.c **** 		afh_enabled = 1;
 3532              		.loc 1 764 0 is_stmt 1
 3533 0860 2C4B     		ldr	r3, .L167+32
 3534 0862 0122     		movs	r2, #1
 3535 0864 1A70     		strb	r2, [r3]
 765:bluetooth_rxtx.c **** 		*data_len = 10;
 3536              		.loc 1 765 0
 3537 0866 3B68     		ldr	r3, [r7]
 3538 0868 0A22     		movs	r2, #10
 3539 086a 1A60     		str	r2, [r3]
 766:bluetooth_rxtx.c **** 		break;
 3540              		.loc 1 766 0
 3541 086c 2BE1     		b	.L119
 3542              	.L111:
 767:bluetooth_rxtx.c **** 
 768:bluetooth_rxtx.c **** 	case UBERTOOTH_CLEAR_AFHMAP:
 769:bluetooth_rxtx.c **** 		for(i=0; i < 10; i++) {
 3543              		.loc 1 769 0
 3544 086e 0023     		movs	r3, #0
 3545 0870 FB64     		str	r3, [r7, #76]
 3546 0872 07E0     		b	.L153
 3547              	.L154:
 770:bluetooth_rxtx.c **** 			afh_map[i] = 0;
 3548              		.loc 1 770 0 discriminator 3
 3549 0874 264A     		ldr	r2, .L167+28
 3550 0876 FB6C     		ldr	r3, [r7, #76]
 3551 0878 1344     		add	r3, r3, r2
 3552 087a 0022     		movs	r2, #0
 3553 087c 1A70     		strb	r2, [r3]
 769:bluetooth_rxtx.c **** 			afh_map[i] = 0;
 3554              		.loc 1 769 0 discriminator 3
 3555 087e FB6C     		ldr	r3, [r7, #76]
 3556 0880 0133     		adds	r3, r3, #1
 3557 0882 FB64     		str	r3, [r7, #76]
 3558              	.L153:
 769:bluetooth_rxtx.c **** 			afh_map[i] = 0;
 3559              		.loc 1 769 0 is_stmt 0 discriminator 1
 3560 0884 FB6C     		ldr	r3, [r7, #76]
 3561 0886 092B     		cmp	r3, #9
 3562 0888 F4DD     		ble	.L154
 771:bluetooth_rxtx.c **** 		}
 772:bluetooth_rxtx.c **** 		afh_enabled = 0;
 3563              		.loc 1 772 0 is_stmt 1
 3564 088a 224B     		ldr	r3, .L167+32
 3565 088c 0022     		movs	r2, #0
 3566 088e 1A70     		strb	r2, [r3]
ARM GAS  /tmp/ccHz27EZ.s 			page 76


 773:bluetooth_rxtx.c **** 		*data_len = 10;
 3567              		.loc 1 773 0
 3568 0890 3B68     		ldr	r3, [r7]
 3569 0892 0A22     		movs	r2, #10
 3570 0894 1A60     		str	r2, [r3]
 774:bluetooth_rxtx.c **** 		break;
 3571              		.loc 1 774 0
 3572 0896 16E1     		b	.L119
 3573              	.L100:
 775:bluetooth_rxtx.c **** 
 776:bluetooth_rxtx.c **** 	case UBERTOOTH_GET_CLOCK:
 777:bluetooth_rxtx.c **** 		clock = clkn;
 3574              		.loc 1 777 0
 3575 0898 1A4B     		ldr	r3, .L167+16
 3576 089a 1B68     		ldr	r3, [r3]
 3577 089c FB63     		str	r3, [r7, #60]
 778:bluetooth_rxtx.c **** 		for(i=0; i < 4; i++) {
 3578              		.loc 1 778 0
 3579 089e 0023     		movs	r3, #0
 3580 08a0 FB64     		str	r3, [r7, #76]
 3581 08a2 0CE0     		b	.L155
 3582              	.L156:
 779:bluetooth_rxtx.c **** 			data[i] = (clock >> (8*i)) & 0xff;
 3583              		.loc 1 779 0 discriminator 3
 3584 08a4 FB6C     		ldr	r3, [r7, #76]
 3585 08a6 7A68     		ldr	r2, [r7, #4]
 3586 08a8 1344     		add	r3, r3, r2
 3587 08aa FA6C     		ldr	r2, [r7, #76]
 3588 08ac D200     		lsls	r2, r2, #3
 3589 08ae F96B     		ldr	r1, [r7, #60]
 3590 08b0 21FA02F2 		lsr	r2, r1, r2
 3591 08b4 D2B2     		uxtb	r2, r2
 3592 08b6 1A70     		strb	r2, [r3]
 778:bluetooth_rxtx.c **** 		for(i=0; i < 4; i++) {
 3593              		.loc 1 778 0 discriminator 3
 3594 08b8 FB6C     		ldr	r3, [r7, #76]
 3595 08ba 0133     		adds	r3, r3, #1
 3596 08bc FB64     		str	r3, [r7, #76]
 3597              	.L155:
 778:bluetooth_rxtx.c **** 		for(i=0; i < 4; i++) {
 3598              		.loc 1 778 0 is_stmt 0 discriminator 1
 3599 08be FB6C     		ldr	r3, [r7, #76]
 3600 08c0 032B     		cmp	r3, #3
 3601 08c2 EFDD     		ble	.L156
 780:bluetooth_rxtx.c **** 		}
 781:bluetooth_rxtx.c **** 		*data_len = 4;
 3602              		.loc 1 781 0 is_stmt 1
 3603 08c4 3B68     		ldr	r3, [r7]
 3604 08c6 0422     		movs	r2, #4
 3605 08c8 1A60     		str	r2, [r3]
 782:bluetooth_rxtx.c **** 		break;
 3606              		.loc 1 782 0
 3607 08ca FCE0     		b	.L119
 3608              	.L101:
 783:bluetooth_rxtx.c **** 
 784:bluetooth_rxtx.c **** 	case UBERTOOTH_BTLE_SNIFFING:
 785:bluetooth_rxtx.c **** 		*data_len = 0;
ARM GAS  /tmp/ccHz27EZ.s 			page 77


 3609              		.loc 1 785 0
 3610 08cc 3B68     		ldr	r3, [r7]
 3611 08ce 0022     		movs	r2, #0
 3612 08d0 1A60     		str	r2, [r3]
 786:bluetooth_rxtx.c **** 
 787:bluetooth_rxtx.c **** 		do_hop = 0;
 3613              		.loc 1 787 0
 3614 08d2 114B     		ldr	r3, .L167+36
 3615 08d4 0022     		movs	r2, #0
 3616 08d6 1A70     		strb	r2, [r3]
 788:bluetooth_rxtx.c **** 		hop_mode = HOP_BTLE;
 3617              		.loc 1 788 0
 3618 08d8 0B4B     		ldr	r3, .L167+20
 3619 08da 0322     		movs	r2, #3
 3620 08dc 1A70     		strb	r2, [r3]
 789:bluetooth_rxtx.c **** 		requested_mode = MODE_BT_FOLLOW_LE;
 3621              		.loc 1 789 0
 3622 08de 0B4B     		ldr	r3, .L167+24
 3623 08e0 0922     		movs	r2, #9
 3624 08e2 1A70     		strb	r2, [r3]
 790:bluetooth_rxtx.c **** 
 791:bluetooth_rxtx.c **** 		queue_init();
 3625              		.loc 1 791 0
 3626 08e4 FFF7FEFF 		bl	queue_init
 792:bluetooth_rxtx.c **** 		cs_threshold_calc_and_set();
 3627              		.loc 1 792 0
 3628 08e8 FFF7FEFF 		bl	cs_threshold_calc_and_set
 793:bluetooth_rxtx.c **** 		break;
 3629              		.loc 1 793 0
 3630 08ec EBE0     		b	.L119
 3631              	.L102:
 794:bluetooth_rxtx.c **** 
 795:bluetooth_rxtx.c **** 	case UBERTOOTH_GET_ACCESS_ADDRESS:
 796:bluetooth_rxtx.c **** 		for(i=0; i < 4; i++) {
 3632              		.loc 1 796 0
 3633 08ee 0023     		movs	r3, #0
 3634 08f0 FB64     		str	r3, [r7, #76]
 3635 08f2 21E0     		b	.L157
 3636              	.L168:
 3637              		.align	2
 3638              	.L167:
 3639 08f4 E0080000 		.word	.LC3
 3640 08f8 00000000 		.word	compile_info
 3641 08fc 00000000 		.word	cs_threshold_req
 3642 0900 00000000 		.word	target
 3643 0904 00000000 		.word	clkn
 3644 0908 00000000 		.word	hop_mode
 3645 090c 00000000 		.word	requested_mode
 3646 0910 00000000 		.word	afh_map
 3647 0914 00000000 		.word	afh_enabled
 3648 0918 00000000 		.word	do_hop
 3649              	.L158:
 797:bluetooth_rxtx.c **** 			data[i] = (le.access_address >> (8*i)) & 0xff;
 3650              		.loc 1 797 0 discriminator 3
 3651 091c FB6C     		ldr	r3, [r7, #76]
 3652 091e 7A68     		ldr	r2, [r7, #4]
 3653 0920 1344     		add	r3, r3, r2
ARM GAS  /tmp/ccHz27EZ.s 			page 78


 3654 0922 6C4A     		ldr	r2, .L169
 3655 0924 1168     		ldr	r1, [r2]
 3656 0926 FA6C     		ldr	r2, [r7, #76]
 3657 0928 D200     		lsls	r2, r2, #3
 3658 092a 21FA02F2 		lsr	r2, r1, r2
 3659 092e D2B2     		uxtb	r2, r2
 3660 0930 1A70     		strb	r2, [r3]
 796:bluetooth_rxtx.c **** 			data[i] = (le.access_address >> (8*i)) & 0xff;
 3661              		.loc 1 796 0 discriminator 3
 3662 0932 FB6C     		ldr	r3, [r7, #76]
 3663 0934 0133     		adds	r3, r3, #1
 3664 0936 FB64     		str	r3, [r7, #76]
 3665              	.L157:
 796:bluetooth_rxtx.c **** 			data[i] = (le.access_address >> (8*i)) & 0xff;
 3666              		.loc 1 796 0 is_stmt 0 discriminator 1
 3667 0938 FB6C     		ldr	r3, [r7, #76]
 3668 093a 032B     		cmp	r3, #3
 3669 093c EEDD     		ble	.L158
 798:bluetooth_rxtx.c **** 		}
 799:bluetooth_rxtx.c **** 		*data_len = 4;
 3670              		.loc 1 799 0 is_stmt 1
 3671 093e 3B68     		ldr	r3, [r7]
 3672 0940 0422     		movs	r2, #4
 3673 0942 1A60     		str	r2, [r3]
 800:bluetooth_rxtx.c **** 		break;
 3674              		.loc 1 800 0
 3675 0944 BFE0     		b	.L119
 3676              	.L103:
 801:bluetooth_rxtx.c **** 
 802:bluetooth_rxtx.c **** 	case UBERTOOTH_SET_ACCESS_ADDRESS:
 803:bluetooth_rxtx.c **** 		le_set_access_address(data[0] | data[1] << 8 | data[2] << 16 | data[3] << 24);
 3677              		.loc 1 803 0
 3678 0946 7B68     		ldr	r3, [r7, #4]
 3679 0948 1B78     		ldrb	r3, [r3]	@ zero_extendqisi2
 3680 094a 1A46     		mov	r2, r3
 3681 094c 7B68     		ldr	r3, [r7, #4]
 3682 094e 0133     		adds	r3, r3, #1
 3683 0950 1B78     		ldrb	r3, [r3]	@ zero_extendqisi2
 3684 0952 1B02     		lsls	r3, r3, #8
 3685 0954 1A43     		orrs	r2, r2, r3
 3686 0956 7B68     		ldr	r3, [r7, #4]
 3687 0958 0233     		adds	r3, r3, #2
 3688 095a 1B78     		ldrb	r3, [r3]	@ zero_extendqisi2
 3689 095c 1B04     		lsls	r3, r3, #16
 3690 095e 1A43     		orrs	r2, r2, r3
 3691 0960 7B68     		ldr	r3, [r7, #4]
 3692 0962 0333     		adds	r3, r3, #3
 3693 0964 1B78     		ldrb	r3, [r3]	@ zero_extendqisi2
 3694 0966 1B06     		lsls	r3, r3, #24
 3695 0968 1343     		orrs	r3, r3, r2
 3696 096a 1846     		mov	r0, r3
 3697 096c FFF7FEFF 		bl	le_set_access_address
 804:bluetooth_rxtx.c **** 		le.target_set = 1;
 3698              		.loc 1 804 0
 3699 0970 584B     		ldr	r3, .L169
 3700 0972 0122     		movs	r2, #1
 3701 0974 DA63     		str	r2, [r3, #60]
ARM GAS  /tmp/ccHz27EZ.s 			page 79


 805:bluetooth_rxtx.c **** 		break;
 3702              		.loc 1 805 0
 3703 0976 A6E0     		b	.L119
 3704              	.L105:
 806:bluetooth_rxtx.c **** 
 807:bluetooth_rxtx.c **** 	case UBERTOOTH_DO_SOMETHING:
 808:bluetooth_rxtx.c **** 		// do something! just don't commit anything here
 809:bluetooth_rxtx.c **** 		break;
 810:bluetooth_rxtx.c **** 
 811:bluetooth_rxtx.c **** 	case UBERTOOTH_DO_SOMETHING_REPLY:
 812:bluetooth_rxtx.c **** 		// after you do something, tell me what you did!
 813:bluetooth_rxtx.c **** 		// don't commit here please
 814:bluetooth_rxtx.c **** 		data[0] = 0x13;
 3705              		.loc 1 814 0
 3706 0978 7B68     		ldr	r3, [r7, #4]
 3707 097a 1322     		movs	r2, #19
 3708 097c 1A70     		strb	r2, [r3]
 815:bluetooth_rxtx.c **** 		data[1] = 0x37;
 3709              		.loc 1 815 0
 3710 097e 7B68     		ldr	r3, [r7, #4]
 3711 0980 0133     		adds	r3, r3, #1
 3712 0982 3722     		movs	r2, #55
 3713 0984 1A70     		strb	r2, [r3]
 816:bluetooth_rxtx.c **** 		*data_len = 2;
 3714              		.loc 1 816 0
 3715 0986 3B68     		ldr	r3, [r7]
 3716 0988 0222     		movs	r2, #2
 3717 098a 1A60     		str	r2, [r3]
 817:bluetooth_rxtx.c **** 		break;
 3718              		.loc 1 817 0
 3719 098c 9BE0     		b	.L119
 3720              	.L106:
 818:bluetooth_rxtx.c **** 
 819:bluetooth_rxtx.c **** 	case UBERTOOTH_GET_CRC_VERIFY:
 820:bluetooth_rxtx.c **** 		data[0] = le.crc_verify ? 1 : 0;
 3721              		.loc 1 820 0
 3722 098e 514B     		ldr	r3, .L169
 3723 0990 1B69     		ldr	r3, [r3, #16]
 3724 0992 002B     		cmp	r3, #0
 3725 0994 14BF     		ite	ne
 3726 0996 0123     		movne	r3, #1
 3727 0998 0023     		moveq	r3, #0
 3728 099a DBB2     		uxtb	r3, r3
 3729 099c 1A46     		mov	r2, r3
 3730 099e 7B68     		ldr	r3, [r7, #4]
 3731 09a0 1A70     		strb	r2, [r3]
 821:bluetooth_rxtx.c **** 		*data_len = 1;
 3732              		.loc 1 821 0
 3733 09a2 3B68     		ldr	r3, [r7]
 3734 09a4 0122     		movs	r2, #1
 3735 09a6 1A60     		str	r2, [r3]
 822:bluetooth_rxtx.c **** 		break;
 3736              		.loc 1 822 0
 3737 09a8 8DE0     		b	.L119
 3738              	.L107:
 823:bluetooth_rxtx.c **** 
 824:bluetooth_rxtx.c **** 	case UBERTOOTH_SET_CRC_VERIFY:
ARM GAS  /tmp/ccHz27EZ.s 			page 80


 825:bluetooth_rxtx.c **** 		le.crc_verify = request_params[0] ? 1 : 0;
 3739              		.loc 1 825 0
 3740 09aa BB68     		ldr	r3, [r7, #8]
 3741 09ac 1B88     		ldrh	r3, [r3]
 3742 09ae 002B     		cmp	r3, #0
 3743 09b0 14BF     		ite	ne
 3744 09b2 0123     		movne	r3, #1
 3745 09b4 0023     		moveq	r3, #0
 3746 09b6 DBB2     		uxtb	r3, r3
 3747 09b8 1A46     		mov	r2, r3
 3748 09ba 464B     		ldr	r3, .L169
 3749 09bc 1A61     		str	r2, [r3, #16]
 826:bluetooth_rxtx.c **** 		break;
 3750              		.loc 1 826 0
 3751 09be 82E0     		b	.L119
 3752              	.L108:
 827:bluetooth_rxtx.c **** 
 828:bluetooth_rxtx.c **** 	case UBERTOOTH_POLL:
 829:bluetooth_rxtx.c **** 		p = dequeue();
 3753              		.loc 1 829 0
 3754 09c0 FFF7FEFF 		bl	dequeue
 3755 09c4 7864     		str	r0, [r7, #68]
 830:bluetooth_rxtx.c **** 		if (p != NULL) {
 3756              		.loc 1 830 0
 3757 09c6 7B6C     		ldr	r3, [r7, #68]
 3758 09c8 002B     		cmp	r3, #0
 3759 09ca 08D0     		beq	.L159
 831:bluetooth_rxtx.c **** 			memcpy(data, (void *)p, sizeof(usb_pkt_rx));
 3760              		.loc 1 831 0
 3761 09cc 7868     		ldr	r0, [r7, #4]
 3762 09ce 796C     		ldr	r1, [r7, #68]
 3763 09d0 4022     		movs	r2, #64
 3764 09d2 FFF7FEFF 		bl	memcpy
 832:bluetooth_rxtx.c **** 			*data_len = sizeof(usb_pkt_rx);
 3765              		.loc 1 832 0
 3766 09d6 3B68     		ldr	r3, [r7]
 3767 09d8 4022     		movs	r2, #64
 3768 09da 1A60     		str	r2, [r3]
 833:bluetooth_rxtx.c **** 		} else {
 834:bluetooth_rxtx.c **** 			data[0] = 0;
 835:bluetooth_rxtx.c **** 			*data_len = 1;
 836:bluetooth_rxtx.c **** 		}
 837:bluetooth_rxtx.c **** 		break;
 3769              		.loc 1 837 0
 3770 09dc 73E0     		b	.L119
 3771              	.L159:
 834:bluetooth_rxtx.c **** 			*data_len = 1;
 3772              		.loc 1 834 0
 3773 09de 7B68     		ldr	r3, [r7, #4]
 3774 09e0 0022     		movs	r2, #0
 3775 09e2 1A70     		strb	r2, [r3]
 835:bluetooth_rxtx.c **** 		}
 3776              		.loc 1 835 0
 3777 09e4 3B68     		ldr	r3, [r7]
 3778 09e6 0122     		movs	r2, #1
 3779 09e8 1A60     		str	r2, [r3]
 3780              		.loc 1 837 0
ARM GAS  /tmp/ccHz27EZ.s 			page 81


 3781 09ea 6CE0     		b	.L119
 3782              	.L109:
 838:bluetooth_rxtx.c **** 
 839:bluetooth_rxtx.c **** 	case UBERTOOTH_BTLE_PROMISC:
 840:bluetooth_rxtx.c **** 		*data_len = 0;
 3783              		.loc 1 840 0
 3784 09ec 3B68     		ldr	r3, [r7]
 3785 09ee 0022     		movs	r2, #0
 3786 09f0 1A60     		str	r2, [r3]
 841:bluetooth_rxtx.c **** 
 842:bluetooth_rxtx.c **** 		hop_mode = HOP_NONE;
 3787              		.loc 1 842 0
 3788 09f2 394B     		ldr	r3, .L169+4
 3789 09f4 0022     		movs	r2, #0
 3790 09f6 1A70     		strb	r2, [r3]
 843:bluetooth_rxtx.c **** 		requested_mode = MODE_BT_PROMISC_LE;
 3791              		.loc 1 843 0
 3792 09f8 384B     		ldr	r3, .L169+8
 3793 09fa 0A22     		movs	r2, #10
 3794 09fc 1A70     		strb	r2, [r3]
 844:bluetooth_rxtx.c **** 
 845:bluetooth_rxtx.c **** 		queue_init();
 3795              		.loc 1 845 0
 3796 09fe FFF7FEFF 		bl	queue_init
 846:bluetooth_rxtx.c **** 		cs_threshold_calc_and_set();
 3797              		.loc 1 846 0
 3798 0a02 FFF7FEFF 		bl	cs_threshold_calc_and_set
 847:bluetooth_rxtx.c **** 		break;
 3799              		.loc 1 847 0
 3800 0a06 5EE0     		b	.L119
 3801              	.L112:
 848:bluetooth_rxtx.c **** 
 849:bluetooth_rxtx.c **** 	case UBERTOOTH_READ_REGISTER:
 850:bluetooth_rxtx.c **** 		reg_val = cc2400_get(request_params[0]);
 3802              		.loc 1 850 0
 3803 0a08 BB68     		ldr	r3, [r7, #8]
 3804 0a0a 1B88     		ldrh	r3, [r3]
 3805 0a0c DBB2     		uxtb	r3, r3
 3806 0a0e 1846     		mov	r0, r3
 3807 0a10 FFF7FEFF 		bl	cc2400_get
 3808 0a14 0346     		mov	r3, r0
 3809 0a16 7B87     		strh	r3, [r7, #58]	@ movhi
 851:bluetooth_rxtx.c **** 		data[0] = (reg_val >> 8) & 0xff;
 3810              		.loc 1 851 0
 3811 0a18 7B8F     		ldrh	r3, [r7, #58]
 3812 0a1a 1B0A     		lsrs	r3, r3, #8
 3813 0a1c 9BB2     		uxth	r3, r3
 3814 0a1e DAB2     		uxtb	r2, r3
 3815 0a20 7B68     		ldr	r3, [r7, #4]
 3816 0a22 1A70     		strb	r2, [r3]
 852:bluetooth_rxtx.c **** 		data[1] = reg_val & 0xff;
 3817              		.loc 1 852 0
 3818 0a24 7B68     		ldr	r3, [r7, #4]
 3819 0a26 0133     		adds	r3, r3, #1
 3820 0a28 7A8F     		ldrh	r2, [r7, #58]	@ movhi
 3821 0a2a D2B2     		uxtb	r2, r2
 3822 0a2c 1A70     		strb	r2, [r3]
ARM GAS  /tmp/ccHz27EZ.s 			page 82


 853:bluetooth_rxtx.c **** 		*data_len = 2;
 3823              		.loc 1 853 0
 3824 0a2e 3B68     		ldr	r3, [r7]
 3825 0a30 0222     		movs	r2, #2
 3826 0a32 1A60     		str	r2, [r3]
 854:bluetooth_rxtx.c **** 		break;
 3827              		.loc 1 854 0
 3828 0a34 47E0     		b	.L119
 3829              	.L116:
 855:bluetooth_rxtx.c **** 
 856:bluetooth_rxtx.c **** 	case UBERTOOTH_WRITE_REGISTER:
 857:bluetooth_rxtx.c **** 		cc2400_set(request_params[0] & 0xff, request_params[1]);
 3830              		.loc 1 857 0
 3831 0a36 BB68     		ldr	r3, [r7, #8]
 3832 0a38 1B88     		ldrh	r3, [r3]
 3833 0a3a DAB2     		uxtb	r2, r3
 3834 0a3c BB68     		ldr	r3, [r7, #8]
 3835 0a3e 0233     		adds	r3, r3, #2
 3836 0a40 1B88     		ldrh	r3, [r3]
 3837 0a42 1046     		mov	r0, r2
 3838 0a44 1946     		mov	r1, r3
 3839 0a46 FFF7FEFF 		bl	cc2400_set
 858:bluetooth_rxtx.c **** 		break;
 3840              		.loc 1 858 0
 3841 0a4a 3CE0     		b	.L119
 3842              	.L113:
 859:bluetooth_rxtx.c **** 
 860:bluetooth_rxtx.c **** 	case UBERTOOTH_BTLE_SLAVE:
 861:bluetooth_rxtx.c **** 		memcpy(slave_mac_address, data, 6);
 3843              		.loc 1 861 0
 3844 0a4c 2448     		ldr	r0, .L169+12
 3845 0a4e 7968     		ldr	r1, [r7, #4]
 3846 0a50 0622     		movs	r2, #6
 3847 0a52 FFF7FEFF 		bl	memcpy
 862:bluetooth_rxtx.c **** 		requested_mode = MODE_BT_SLAVE_LE;
 3848              		.loc 1 862 0
 3849 0a56 214B     		ldr	r3, .L169+8
 3850 0a58 0C22     		movs	r2, #12
 3851 0a5a 1A70     		strb	r2, [r3]
 863:bluetooth_rxtx.c **** 		break;
 3852              		.loc 1 863 0
 3853 0a5c 33E0     		b	.L119
 3854              	.L115:
 864:bluetooth_rxtx.c **** 
 865:bluetooth_rxtx.c **** 	case UBERTOOTH_BTLE_SET_TARGET:
 866:bluetooth_rxtx.c **** 		// Addresses appear in packets in reverse-octet order.
 867:bluetooth_rxtx.c **** 		// Store the target address in reverse order so that we can do a simple memcmp later
 868:bluetooth_rxtx.c **** 		le.target[0] = data[5];
 3855              		.loc 1 868 0
 3856 0a5e 7B68     		ldr	r3, [r7, #4]
 3857 0a60 5A79     		ldrb	r2, [r3, #5]	@ zero_extendqisi2
 3858 0a62 1C4B     		ldr	r3, .L169
 3859 0a64 83F83420 		strb	r2, [r3, #52]
 869:bluetooth_rxtx.c **** 		le.target[1] = data[4];
 3860              		.loc 1 869 0
 3861 0a68 7B68     		ldr	r3, [r7, #4]
 3862 0a6a 1A79     		ldrb	r2, [r3, #4]	@ zero_extendqisi2
ARM GAS  /tmp/ccHz27EZ.s 			page 83


 3863 0a6c 194B     		ldr	r3, .L169
 3864 0a6e 83F83520 		strb	r2, [r3, #53]
 870:bluetooth_rxtx.c **** 		le.target[2] = data[3];
 3865              		.loc 1 870 0
 3866 0a72 7B68     		ldr	r3, [r7, #4]
 3867 0a74 DA78     		ldrb	r2, [r3, #3]	@ zero_extendqisi2
 3868 0a76 174B     		ldr	r3, .L169
 3869 0a78 83F83620 		strb	r2, [r3, #54]
 871:bluetooth_rxtx.c **** 		le.target[3] = data[2];
 3870              		.loc 1 871 0
 3871 0a7c 7B68     		ldr	r3, [r7, #4]
 3872 0a7e 9A78     		ldrb	r2, [r3, #2]	@ zero_extendqisi2
 3873 0a80 144B     		ldr	r3, .L169
 3874 0a82 83F83720 		strb	r2, [r3, #55]
 872:bluetooth_rxtx.c **** 		le.target[4] = data[1];
 3875              		.loc 1 872 0
 3876 0a86 7B68     		ldr	r3, [r7, #4]
 3877 0a88 5A78     		ldrb	r2, [r3, #1]	@ zero_extendqisi2
 3878 0a8a 124B     		ldr	r3, .L169
 3879 0a8c 83F83820 		strb	r2, [r3, #56]
 873:bluetooth_rxtx.c **** 		le.target[5] = data[0];
 3880              		.loc 1 873 0
 3881 0a90 7B68     		ldr	r3, [r7, #4]
 3882 0a92 1A78     		ldrb	r2, [r3]	@ zero_extendqisi2
 3883 0a94 0F4B     		ldr	r3, .L169
 3884 0a96 83F83920 		strb	r2, [r3, #57]
 874:bluetooth_rxtx.c **** 		le.target_set = 1;
 3885              		.loc 1 874 0
 3886 0a9a 0E4B     		ldr	r3, .L169
 3887 0a9c 0122     		movs	r2, #1
 3888 0a9e DA63     		str	r2, [r3, #60]
 875:bluetooth_rxtx.c **** 		break;
 3889              		.loc 1 875 0
 3890 0aa0 11E0     		b	.L119
 3891              	.L117:
 876:bluetooth_rxtx.c **** 
 877:bluetooth_rxtx.c **** #ifdef TX_ENABLE
 878:bluetooth_rxtx.c **** 	case UBERTOOTH_JAM_MODE:
 879:bluetooth_rxtx.c **** 		jam_mode = request_params[0];
 3892              		.loc 1 879 0
 3893 0aa2 BB68     		ldr	r3, [r7, #8]
 3894 0aa4 1B88     		ldrh	r3, [r3]
 3895 0aa6 DAB2     		uxtb	r2, r3
 3896 0aa8 0E4B     		ldr	r3, .L169+16
 3897 0aaa 1A70     		strb	r2, [r3]
 880:bluetooth_rxtx.c **** 		break;
 3898              		.loc 1 880 0
 3899 0aac 0BE0     		b	.L119
 3900              	.L118:
 881:bluetooth_rxtx.c **** #endif
 882:bluetooth_rxtx.c **** 
 883:bluetooth_rxtx.c **** 	case UBERTOOTH_EGO:
 884:bluetooth_rxtx.c **** #ifndef TX_ENABLE
 885:bluetooth_rxtx.c **** 		if (ego_mode == EGO_JAM)
 886:bluetooth_rxtx.c **** 			return 0;
 887:bluetooth_rxtx.c **** #endif
 888:bluetooth_rxtx.c **** 		requested_mode = MODE_EGO;
ARM GAS  /tmp/ccHz27EZ.s 			page 84


 3901              		.loc 1 888 0
 3902 0aae 0B4B     		ldr	r3, .L169+8
 3903 0ab0 0D22     		movs	r2, #13
 3904 0ab2 1A70     		strb	r2, [r3]
 889:bluetooth_rxtx.c **** 		ego_mode = request_params[0];
 3905              		.loc 1 889 0
 3906 0ab4 BB68     		ldr	r3, [r7, #8]
 3907 0ab6 1B88     		ldrh	r3, [r3]
 3908 0ab8 DAB2     		uxtb	r2, r3
 3909 0aba 0B4B     		ldr	r3, .L169+20
 3910 0abc 1A70     		strb	r2, [r3]
 890:bluetooth_rxtx.c **** 		break;
 3911              		.loc 1 890 0
 3912 0abe 02E0     		b	.L119
 3913              	.L59:
 891:bluetooth_rxtx.c **** 
 892:bluetooth_rxtx.c **** 	default:
 893:bluetooth_rxtx.c **** 		return 0;
 3914              		.loc 1 893 0
 3915 0ac0 0023     		movs	r3, #0
 3916 0ac2 01E0     		b	.L161
 3917              	.L162:
 809:bluetooth_rxtx.c **** 
 3918              		.loc 1 809 0
 3919 0ac4 00BF     		nop
 3920              	.L119:
 894:bluetooth_rxtx.c **** 	}
 895:bluetooth_rxtx.c **** 	return 1;
 3921              		.loc 1 895 0
 3922 0ac6 0123     		movs	r3, #1
 3923              	.L161:
 896:bluetooth_rxtx.c **** }
 3924              		.loc 1 896 0 discriminator 1
 3925 0ac8 1846     		mov	r0, r3
 3926 0aca 5437     		adds	r7, r7, #84
 3927              		.cfi_def_cfa_offset 36
 3928 0acc BD46     		mov	sp, r7
 3929              		.cfi_def_cfa_register 13
 3930              		@ sp needed
 3931 0ace BDE8F08F 		pop	{r4, r5, r6, r7, r8, r9, r10, fp, pc}
 3932              	.L170:
 3933 0ad2 00BF     		.align	2
 3934              	.L169:
 3935 0ad4 00000000 		.word	le
 3936 0ad8 00000000 		.word	hop_mode
 3937 0adc 00000000 		.word	requested_mode
 3938 0ae0 00000000 		.word	slave_mac_address
 3939 0ae4 00000000 		.word	jam_mode
 3940 0ae8 00000000 		.word	ego_mode
 3941              		.cfi_endproc
 3942              	.LFE12:
 3944              		.section	.text.clkn_init,"ax",%progbits
 3945              		.align	2
 3946              		.thumb
 3947              		.thumb_func
 3949              	clkn_init:
 3950              	.LFB13:
ARM GAS  /tmp/ccHz27EZ.s 			page 85


 897:bluetooth_rxtx.c **** 
 898:bluetooth_rxtx.c **** static void clkn_init()
 899:bluetooth_rxtx.c **** {
 3951              		.loc 1 899 0
 3952              		.cfi_startproc
 3953              		@ args = 0, pretend = 0, frame = 0
 3954              		@ frame_needed = 1, uses_anonymous_args = 0
 3955              		@ link register save eliminated.
 3956 0000 80B4     		push	{r7}
 3957              		.cfi_def_cfa_offset 4
 3958              		.cfi_offset 7, -4
 3959 0002 00AF     		add	r7, sp, #0
 3960              		.cfi_def_cfa_register 7
 900:bluetooth_rxtx.c **** 	/*
 901:bluetooth_rxtx.c **** 	 * Because these are reset defaults, we're assuming TIMER0 is powered on
 902:bluetooth_rxtx.c **** 	 * and in timer mode.  The TIMER0 peripheral clock should have been set by
 903:bluetooth_rxtx.c **** 	 * clock_start().
 904:bluetooth_rxtx.c **** 	 */
 905:bluetooth_rxtx.c **** 
 906:bluetooth_rxtx.c **** 	/* stop and reset the timer to zero */
 907:bluetooth_rxtx.c **** 	T0TCR = TCR_Counter_Reset;
 3961              		.loc 1 907 0
 3962 0004 0C4B     		ldr	r3, .L172
 3963 0006 0222     		movs	r2, #2
 3964 0008 1A60     		str	r2, [r3]
 908:bluetooth_rxtx.c **** 	clkn = 0;
 3965              		.loc 1 908 0
 3966 000a 0C4B     		ldr	r3, .L172+4
 3967 000c 0022     		movs	r2, #0
 3968 000e 1A60     		str	r2, [r3]
 909:bluetooth_rxtx.c **** 
 910:bluetooth_rxtx.c **** #ifdef TC13BADGE
 911:bluetooth_rxtx.c **** 	/*
 912:bluetooth_rxtx.c **** 	 * The peripheral clock has a period of 33.3ns.  3 pclk periods makes one
 913:bluetooth_rxtx.c **** 	 * CLK100NS period (100 ns).
 914:bluetooth_rxtx.c **** 	 */
 915:bluetooth_rxtx.c **** 	T0PR = 2;
 916:bluetooth_rxtx.c **** #else
 917:bluetooth_rxtx.c **** 	/*
 918:bluetooth_rxtx.c **** 	 * The peripheral clock has a period of 20ns.  5 pclk periods
 919:bluetooth_rxtx.c **** 	 * makes one CLK100NS period (100 ns).
 920:bluetooth_rxtx.c **** 	 */
 921:bluetooth_rxtx.c **** 	T0PR = 4;
 3969              		.loc 1 921 0
 3970 0010 0B4B     		ldr	r3, .L172+8
 3971 0012 0422     		movs	r2, #4
 3972 0014 1A60     		str	r2, [r3]
 922:bluetooth_rxtx.c **** #endif
 923:bluetooth_rxtx.c **** 	/* 3125 * 100 ns = 312.5 us, the Bluetooth clock (CLKN). */
 924:bluetooth_rxtx.c **** 	T0MR0 = 3124;
 3973              		.loc 1 924 0
 3974 0016 0B4B     		ldr	r3, .L172+12
 3975 0018 40F63442 		movw	r2, #3124
 3976 001c 1A60     		str	r2, [r3]
 925:bluetooth_rxtx.c **** 	T0MCR = TMCR_MR0R | TMCR_MR0I;
 3977              		.loc 1 925 0
 3978 001e 0A4B     		ldr	r3, .L172+16
ARM GAS  /tmp/ccHz27EZ.s 			page 86


 3979 0020 0322     		movs	r2, #3
 3980 0022 1A60     		str	r2, [r3]
 926:bluetooth_rxtx.c **** 	ISER0 = ISER0_ISE_TIMER0;
 3981              		.loc 1 926 0
 3982 0024 094B     		ldr	r3, .L172+20
 3983 0026 0222     		movs	r2, #2
 3984 0028 1A60     		str	r2, [r3]
 927:bluetooth_rxtx.c **** 
 928:bluetooth_rxtx.c **** 	/* start timer */
 929:bluetooth_rxtx.c **** 	T0TCR = TCR_Counter_Enable;
 3985              		.loc 1 929 0
 3986 002a 034B     		ldr	r3, .L172
 3987 002c 0122     		movs	r2, #1
 3988 002e 1A60     		str	r2, [r3]
 930:bluetooth_rxtx.c **** }
 3989              		.loc 1 930 0
 3990 0030 BD46     		mov	sp, r7
 3991              		.cfi_def_cfa_register 13
 3992              		@ sp needed
 3993 0032 5DF8047B 		ldr	r7, [sp], #4
 3994              		.cfi_restore 7
 3995              		.cfi_def_cfa_offset 0
 3996 0036 7047     		bx	lr
 3997              	.L173:
 3998              		.align	2
 3999              	.L172:
 4000 0038 04400040 		.word	1073758212
 4001 003c 00000000 		.word	clkn
 4002 0040 0C400040 		.word	1073758220
 4003 0044 18400040 		.word	1073758232
 4004 0048 14400040 		.word	1073758228
 4005 004c 00E100E0 		.word	-536813312
 4006              		.cfi_endproc
 4007              	.LFE13:
 4009              		.section	.text.TIMER0_IRQHandler,"ax",%progbits
 4010              		.align	2
 4011              		.global	TIMER0_IRQHandler
 4012              		.thumb
 4013              		.thumb_func
 4015              	TIMER0_IRQHandler:
 4016              	.LFB14:
 931:bluetooth_rxtx.c **** 
 932:bluetooth_rxtx.c **** /* Update CLKN. */
 933:bluetooth_rxtx.c **** void TIMER0_IRQHandler()
 934:bluetooth_rxtx.c **** {
 4017              		.loc 1 934 0
 4018              		.cfi_startproc
 4019              		@ args = 0, pretend = 0, frame = 8
 4020              		@ frame_needed = 1, uses_anonymous_args = 0
 4021              		@ link register save eliminated.
 4022 0000 80B4     		push	{r7}
 4023              		.cfi_def_cfa_offset 4
 4024              		.cfi_offset 7, -4
 4025 0002 83B0     		sub	sp, sp, #12
 4026              		.cfi_def_cfa_offset 16
 4027 0004 00AF     		add	r7, sp, #0
 4028              		.cfi_def_cfa_register 7
ARM GAS  /tmp/ccHz27EZ.s 			page 87


 935:bluetooth_rxtx.c **** 	// Use non-volatile working register to shave off a couple instructions
 936:bluetooth_rxtx.c **** 	u32 next;
 937:bluetooth_rxtx.c **** 	u32 le_clk;
 938:bluetooth_rxtx.c **** 
 939:bluetooth_rxtx.c **** 	if (T0IR & TIR_MR0_Interrupt) {
 4029              		.loc 1 939 0
 4030 0006 4FF04023 		mov	r3, #1073758208
 4031 000a 1B68     		ldr	r3, [r3]
 4032 000c 03F00103 		and	r3, r3, #1
 4033 0010 002B     		cmp	r3, #0
 4034 0012 6DD0     		beq	.L174
 940:bluetooth_rxtx.c **** 
 941:bluetooth_rxtx.c **** 		clkn++;
 4035              		.loc 1 941 0
 4036 0014 394B     		ldr	r3, .L184
 4037 0016 1B68     		ldr	r3, [r3]
 4038 0018 0133     		adds	r3, r3, #1
 4039 001a 384A     		ldr	r2, .L184
 4040 001c 1360     		str	r3, [r2]
 942:bluetooth_rxtx.c **** 		next = clkn;
 4041              		.loc 1 942 0
 4042 001e 374B     		ldr	r3, .L184
 4043 0020 1B68     		ldr	r3, [r3]
 4044 0022 7B60     		str	r3, [r7, #4]
 943:bluetooth_rxtx.c **** 		le_clk = (next - le.conn_epoch) & 0x03;
 4045              		.loc 1 943 0
 4046 0024 364B     		ldr	r3, .L184+4
 4047 0026 9B69     		ldr	r3, [r3, #24]
 4048 0028 7A68     		ldr	r2, [r7, #4]
 4049 002a D31A     		subs	r3, r2, r3
 4050 002c 03F00303 		and	r3, r3, #3
 4051 0030 3B60     		str	r3, [r7]
 944:bluetooth_rxtx.c **** 
 945:bluetooth_rxtx.c **** 		/* Trigger hop based on mode */
 946:bluetooth_rxtx.c **** 
 947:bluetooth_rxtx.c **** 		/* NONE or SWEEP -> 25 Hz */
 948:bluetooth_rxtx.c **** 		if (hop_mode == HOP_NONE || hop_mode == HOP_SWEEP) {
 4052              		.loc 1 948 0
 4053 0032 344B     		ldr	r3, .L184+8
 4054 0034 1B78     		ldrb	r3, [r3]	@ zero_extendqisi2
 4055 0036 002B     		cmp	r3, #0
 4056 0038 03D0     		beq	.L176
 4057              		.loc 1 948 0 is_stmt 0 discriminator 1
 4058 003a 324B     		ldr	r3, .L184+8
 4059 003c 1B78     		ldrb	r3, [r3]	@ zero_extendqisi2
 4060 003e 012B     		cmp	r3, #1
 4061 0040 09D1     		bne	.L177
 4062              	.L176:
 949:bluetooth_rxtx.c **** 			if ((next & 0x7f) == 0)
 4063              		.loc 1 949 0 is_stmt 1
 4064 0042 7B68     		ldr	r3, [r7, #4]
 4065 0044 03F07F03 		and	r3, r3, #127
 4066 0048 002B     		cmp	r3, #0
 4067 004a 03D1     		bne	.L178
 950:bluetooth_rxtx.c **** 				do_hop = 1;
 4068              		.loc 1 950 0
 4069 004c 2E4B     		ldr	r3, .L184+12
ARM GAS  /tmp/ccHz27EZ.s 			page 88


 4070 004e 0122     		movs	r2, #1
 4071 0050 1A70     		strb	r2, [r3]
 949:bluetooth_rxtx.c **** 			if ((next & 0x7f) == 0)
 4072              		.loc 1 949 0
 4073 0052 37E0     		b	.L179
 4074              	.L178:
 4075 0054 36E0     		b	.L179
 4076              	.L177:
 951:bluetooth_rxtx.c **** 		}
 952:bluetooth_rxtx.c **** 		/* BLUETOOTH -> 1600 Hz */
 953:bluetooth_rxtx.c **** 		else if (hop_mode == HOP_BLUETOOTH) {
 4077              		.loc 1 953 0
 4078 0056 2B4B     		ldr	r3, .L184+8
 4079 0058 1B78     		ldrb	r3, [r3]	@ zero_extendqisi2
 4080 005a 022B     		cmp	r3, #2
 4081 005c 08D1     		bne	.L180
 954:bluetooth_rxtx.c **** 			if ((next & 0x1) == 0)
 4082              		.loc 1 954 0
 4083 005e 7B68     		ldr	r3, [r7, #4]
 4084 0060 03F00103 		and	r3, r3, #1
 4085 0064 002B     		cmp	r3, #0
 4086 0066 2DD1     		bne	.L179
 955:bluetooth_rxtx.c **** 				do_hop = 1;
 4087              		.loc 1 955 0
 4088 0068 274B     		ldr	r3, .L184+12
 4089 006a 0122     		movs	r2, #1
 4090 006c 1A70     		strb	r2, [r3]
 4091 006e 29E0     		b	.L179
 4092              	.L180:
 956:bluetooth_rxtx.c **** 		}
 957:bluetooth_rxtx.c **** 		/* BLUETOOTH Low Energy -> 7.5ms - 4.0s in multiples of 1.25 ms */
 958:bluetooth_rxtx.c **** 		else if (hop_mode == HOP_BTLE) {
 4093              		.loc 1 958 0
 4094 0070 244B     		ldr	r3, .L184+8
 4095 0072 1B78     		ldrb	r3, [r3]	@ zero_extendqisi2
 4096 0074 032B     		cmp	r3, #3
 4097 0076 25D1     		bne	.L179
 959:bluetooth_rxtx.c **** 			// Only hop if connected
 960:bluetooth_rxtx.c **** 			if (le.link_state == LINK_CONNECTED && le_clk == 0) {
 4098              		.loc 1 960 0
 4099 0078 214B     		ldr	r3, .L184+4
 4100 007a 1B7D     		ldrb	r3, [r3, #20]	@ zero_extendqisi2
 4101 007c 032B     		cmp	r3, #3
 4102 007e 21D1     		bne	.L179
 4103              		.loc 1 960 0 is_stmt 0 discriminator 1
 4104 0080 3B68     		ldr	r3, [r7]
 4105 0082 002B     		cmp	r3, #0
 4106 0084 1ED1     		bne	.L179
 961:bluetooth_rxtx.c **** 				--le.interval_timer;
 4107              		.loc 1 961 0 is_stmt 1
 4108 0086 1E4B     		ldr	r3, .L184+4
 4109 0088 9B8B     		ldrh	r3, [r3, #28]	@ movhi
 4110 008a 9BB2     		uxth	r3, r3
 4111 008c 013B     		subs	r3, r3, #1
 4112 008e 9AB2     		uxth	r2, r3
 4113 0090 1B4B     		ldr	r3, .L184+4
 4114 0092 9A83     		strh	r2, [r3, #28]	@ movhi
ARM GAS  /tmp/ccHz27EZ.s 			page 89


 962:bluetooth_rxtx.c **** 				if (le.interval_timer == 0) {
 4115              		.loc 1 962 0
 4116 0094 1A4B     		ldr	r3, .L184+4
 4117 0096 9B8B     		ldrh	r3, [r3, #28]	@ movhi
 4118 0098 9BB2     		uxth	r3, r3
 4119 009a 002B     		cmp	r3, #0
 4120 009c 0ED1     		bne	.L182
 963:bluetooth_rxtx.c **** 					do_hop = 1;
 4121              		.loc 1 963 0
 4122 009e 1A4B     		ldr	r3, .L184+12
 4123 00a0 0122     		movs	r2, #1
 4124 00a2 1A70     		strb	r2, [r3]
 964:bluetooth_rxtx.c **** 					++le.conn_count;
 4125              		.loc 1 964 0
 4126 00a4 164B     		ldr	r3, .L184+4
 4127 00a6 1B8C     		ldrh	r3, [r3, #32]	@ movhi
 4128 00a8 9BB2     		uxth	r3, r3
 4129 00aa 0133     		adds	r3, r3, #1
 4130 00ac 9AB2     		uxth	r2, r3
 4131 00ae 144B     		ldr	r3, .L184+4
 4132 00b0 1A84     		strh	r2, [r3, #32]	@ movhi
 965:bluetooth_rxtx.c **** 					le.interval_timer = le.conn_interval;
 4133              		.loc 1 965 0
 4134 00b2 134B     		ldr	r3, .L184+4
 4135 00b4 DA8B     		ldrh	r2, [r3, #30]
 4136 00b6 124B     		ldr	r3, .L184+4
 4137 00b8 9A83     		strh	r2, [r3, #28]	@ movhi
 4138 00ba 03E0     		b	.L179
 4139              	.L182:
 966:bluetooth_rxtx.c **** 				} else {
 967:bluetooth_rxtx.c **** 					TXLED_CLR; // hack!
 4140              		.loc 1 967 0
 4141 00bc 134B     		ldr	r3, .L184+16
 4142 00be 4FF48072 		mov	r2, #256
 4143 00c2 1A60     		str	r2, [r3]
 4144              	.L179:
 968:bluetooth_rxtx.c **** 				}
 969:bluetooth_rxtx.c **** 			}
 970:bluetooth_rxtx.c **** 		}
 971:bluetooth_rxtx.c **** 
 972:bluetooth_rxtx.c **** 		/* Keepalive trigger fires at 3200/2^9 = 6.25 Hz */
 973:bluetooth_rxtx.c **** 		if ((next & 0x1ff) == 0)
 4145              		.loc 1 973 0
 4146 00c4 7B68     		ldr	r3, [r7, #4]
 4147 00c6 C3F30803 		ubfx	r3, r3, #0, #9
 4148 00ca 002B     		cmp	r3, #0
 4149 00cc 02D1     		bne	.L183
 974:bluetooth_rxtx.c **** 			keepalive_trigger = 1;
 4150              		.loc 1 974 0
 4151 00ce 104B     		ldr	r3, .L184+20
 4152 00d0 0122     		movs	r2, #1
 4153 00d2 1A70     		strb	r2, [r3]
 4154              	.L183:
 975:bluetooth_rxtx.c **** 
 976:bluetooth_rxtx.c **** 		/* Ack interrupt */
 977:bluetooth_rxtx.c **** 		T0MR0 = 3124 - clock_trim;
 4155              		.loc 1 977 0
ARM GAS  /tmp/ccHz27EZ.s 			page 90


 4156 00d4 0F4A     		ldr	r2, .L184+24
 4157 00d6 104B     		ldr	r3, .L184+28
 4158 00d8 1B68     		ldr	r3, [r3]
 4159 00da C3F54363 		rsb	r3, r3, #3120
 4160 00de 0433     		adds	r3, r3, #4
 4161 00e0 1360     		str	r3, [r2]
 978:bluetooth_rxtx.c **** 		clock_trim = 0;
 4162              		.loc 1 978 0
 4163 00e2 0D4B     		ldr	r3, .L184+28
 4164 00e4 0022     		movs	r2, #0
 4165 00e6 1A60     		str	r2, [r3]
 979:bluetooth_rxtx.c **** 		T0IR = TIR_MR0_Interrupt;
 4166              		.loc 1 979 0
 4167 00e8 4FF04023 		mov	r3, #1073758208
 4168 00ec 0122     		movs	r2, #1
 4169 00ee 1A60     		str	r2, [r3]
 4170              	.L174:
 980:bluetooth_rxtx.c **** 	}
 981:bluetooth_rxtx.c **** }
 4171              		.loc 1 981 0
 4172 00f0 0C37     		adds	r7, r7, #12
 4173              		.cfi_def_cfa_offset 4
 4174 00f2 BD46     		mov	sp, r7
 4175              		.cfi_def_cfa_register 13
 4176              		@ sp needed
 4177 00f4 5DF8047B 		ldr	r7, [sp], #4
 4178              		.cfi_restore 7
 4179              		.cfi_def_cfa_offset 0
 4180 00f8 7047     		bx	lr
 4181              	.L185:
 4182 00fa 00BF     		.align	2
 4183              	.L184:
 4184 00fc 00000000 		.word	clkn
 4185 0100 00000000 		.word	le
 4186 0104 00000000 		.word	hop_mode
 4187 0108 00000000 		.word	do_hop
 4188 010c 3CC00920 		.word	537509948
 4189 0110 00000000 		.word	keepalive_trigger
 4190 0114 18400040 		.word	1073758232
 4191 0118 00000000 		.word	clock_trim
 4192              		.cfi_endproc
 4193              	.LFE14:
 4195              		.section	.text.EINT3_IRQHandler,"ax",%progbits
 4196              		.align	2
 4197              		.global	EINT3_IRQHandler
 4198              		.thumb
 4199              		.thumb_func
 4201              	EINT3_IRQHandler:
 4202              	.LFB15:
 982:bluetooth_rxtx.c **** 
 983:bluetooth_rxtx.c **** /* EINT3 handler is also defined in ubertooth.c for TC13BADGE. */
 984:bluetooth_rxtx.c **** #ifndef TC13BADGE
 985:bluetooth_rxtx.c **** //static volatile u8 txledstate = 1;
 986:bluetooth_rxtx.c **** void EINT3_IRQHandler()
 987:bluetooth_rxtx.c **** {
 4203              		.loc 1 987 0
 4204              		.cfi_startproc
ARM GAS  /tmp/ccHz27EZ.s 			page 91


 4205              		@ args = 0, pretend = 0, frame = 0
 4206              		@ frame_needed = 1, uses_anonymous_args = 0
 4207              		@ link register save eliminated.
 4208 0000 80B4     		push	{r7}
 4209              		.cfi_def_cfa_offset 4
 4210              		.cfi_offset 7, -4
 4211 0002 00AF     		add	r7, sp, #0
 4212              		.cfi_def_cfa_register 7
 988:bluetooth_rxtx.c **** 	/* TODO - check specific source of shared interrupt */
 989:bluetooth_rxtx.c **** 	IO2IntClr = PIN_GIO6;            // clear interrupt
 4213              		.loc 1 989 0
 4214 0004 0B4B     		ldr	r3, .L187
 4215 0006 0422     		movs	r2, #4
 4216 0008 1A60     		str	r2, [r3]
 990:bluetooth_rxtx.c **** 	cs_trigger = 1;                  // signal trigger
 4217              		.loc 1 990 0
 4218 000a 0B4B     		ldr	r3, .L187+4
 4219 000c 0122     		movs	r2, #1
 4220 000e 1A70     		strb	r2, [r3]
 991:bluetooth_rxtx.c **** 	cs_timestamp = CLK100NS;         // time at trigger
 4221              		.loc 1 991 0
 4222 0010 0A4B     		ldr	r3, .L187+8
 4223 0012 1B68     		ldr	r3, [r3]
 4224 0014 C3F31303 		ubfx	r3, r3, #0, #20
 4225 0018 40F63542 		movw	r2, #3125
 4226 001c 02FB03F2 		mul	r2, r2, r3
 4227 0020 074B     		ldr	r3, .L187+12
 4228 0022 1B68     		ldr	r3, [r3]
 4229 0024 1344     		add	r3, r3, r2
 4230 0026 074A     		ldr	r2, .L187+16
 4231 0028 1360     		str	r3, [r2]
 992:bluetooth_rxtx.c **** }
 4232              		.loc 1 992 0
 4233 002a BD46     		mov	sp, r7
 4234              		.cfi_def_cfa_register 13
 4235              		@ sp needed
 4236 002c 5DF8047B 		ldr	r7, [sp], #4
 4237              		.cfi_restore 7
 4238              		.cfi_def_cfa_offset 0
 4239 0030 7047     		bx	lr
 4240              	.L188:
 4241 0032 00BF     		.align	2
 4242              	.L187:
 4243 0034 AC800240 		.word	1073905836
 4244 0038 00000000 		.word	cs_trigger
 4245 003c 00000000 		.word	clkn
 4246 0040 08400040 		.word	1073758216
 4247 0044 00000000 		.word	cs_timestamp
 4248              		.cfi_endproc
 4249              	.LFE15:
 4251              		.section	.text.msleep,"ax",%progbits
 4252              		.align	2
 4253              		.thumb
 4254              		.thumb_func
 4256              	msleep:
 4257              	.LFB16:
 993:bluetooth_rxtx.c **** #endif // TC13BADGE
ARM GAS  /tmp/ccHz27EZ.s 			page 92


 994:bluetooth_rxtx.c **** 
 995:bluetooth_rxtx.c **** /* Sleep (busy wait) for 'millis' milliseconds. The 'wait' routines in
 996:bluetooth_rxtx.c ****  * ubertooth.c are matched to the clock setup at boot time and can not
 997:bluetooth_rxtx.c ****  * be used while the board is running at 100MHz. */
 998:bluetooth_rxtx.c **** static void msleep(uint32_t millis)
 999:bluetooth_rxtx.c **** {
 4258              		.loc 1 999 0
 4259              		.cfi_startproc
 4260              		@ args = 0, pretend = 0, frame = 16
 4261              		@ frame_needed = 1, uses_anonymous_args = 0
 4262              		@ link register save eliminated.
 4263 0000 80B4     		push	{r7}
 4264              		.cfi_def_cfa_offset 4
 4265              		.cfi_offset 7, -4
 4266 0002 85B0     		sub	sp, sp, #20
 4267              		.cfi_def_cfa_offset 24
 4268 0004 00AF     		add	r7, sp, #0
 4269              		.cfi_def_cfa_register 7
 4270 0006 7860     		str	r0, [r7, #4]
1000:bluetooth_rxtx.c **** 	uint32_t stop_at = clkn + millis * 3125 / 1000;  // millis -> clkn ticks
 4271              		.loc 1 1000 0
 4272 0008 7B68     		ldr	r3, [r7, #4]
 4273 000a 40F63542 		movw	r2, #3125
 4274 000e 02FB03F3 		mul	r3, r2, r3
 4275 0012 094A     		ldr	r2, .L191
 4276 0014 A2FB0323 		umull	r2, r3, r2, r3
 4277 0018 9A09     		lsrs	r2, r3, #6
 4278 001a 084B     		ldr	r3, .L191+4
 4279 001c 1B68     		ldr	r3, [r3]
 4280 001e 1344     		add	r3, r3, r2
 4281 0020 FB60     		str	r3, [r7, #12]
 4282              	.L190:
1001:bluetooth_rxtx.c **** 	do { } while (clkn < stop_at);                   // TODO: handle wrapping
 4283              		.loc 1 1001 0 discriminator 1
 4284 0022 064B     		ldr	r3, .L191+4
 4285 0024 1A68     		ldr	r2, [r3]
 4286 0026 FB68     		ldr	r3, [r7, #12]
 4287 0028 9A42     		cmp	r2, r3
 4288 002a FAD3     		bcc	.L190
1002:bluetooth_rxtx.c **** }
 4289              		.loc 1 1002 0
 4290 002c 1437     		adds	r7, r7, #20
 4291              		.cfi_def_cfa_offset 4
 4292 002e BD46     		mov	sp, r7
 4293              		.cfi_def_cfa_register 13
 4294              		@ sp needed
 4295 0030 5DF8047B 		ldr	r7, [sp], #4
 4296              		.cfi_restore 7
 4297              		.cfi_def_cfa_offset 0
 4298 0034 7047     		bx	lr
 4299              	.L192:
 4300 0036 00BF     		.align	2
 4301              	.L191:
 4302 0038 D34D6210 		.word	274877907
 4303 003c 00000000 		.word	clkn
 4304              		.cfi_endproc
 4305              	.LFE16:
ARM GAS  /tmp/ccHz27EZ.s 			page 93


 4307              		.section	.text.dma_init,"ax",%progbits
 4308              		.align	2
 4309              		.thumb
 4310              		.thumb_func
 4312              	dma_init:
 4313              	.LFB17:
1003:bluetooth_rxtx.c **** 
1004:bluetooth_rxtx.c **** static void dma_init()
1005:bluetooth_rxtx.c **** {
 4314              		.loc 1 1005 0
 4315              		.cfi_startproc
 4316              		@ args = 0, pretend = 0, frame = 0
 4317              		@ frame_needed = 1, uses_anonymous_args = 0
 4318              		@ link register save eliminated.
 4319 0000 80B4     		push	{r7}
 4320              		.cfi_def_cfa_offset 4
 4321              		.cfi_offset 7, -4
 4322 0002 00AF     		add	r7, sp, #0
 4323              		.cfi_def_cfa_register 7
1006:bluetooth_rxtx.c **** 	/* power up GPDMA controller */
1007:bluetooth_rxtx.c **** 	PCONP |= PCONP_PCGPDMA;
 4324              		.loc 1 1007 0
 4325 0004 3F4A     		ldr	r2, .L195
 4326 0006 3F4B     		ldr	r3, .L195
 4327 0008 1B68     		ldr	r3, [r3]
 4328 000a 43F00053 		orr	r3, r3, #536870912
 4329 000e 1360     		str	r3, [r2]
1008:bluetooth_rxtx.c **** 
1009:bluetooth_rxtx.c **** 	/* zero out channel configs and clear interrupts */
1010:bluetooth_rxtx.c **** 	DMACC0Config = 0;
 4330              		.loc 1 1010 0
 4331 0010 3D4B     		ldr	r3, .L195+4
 4332 0012 0022     		movs	r2, #0
 4333 0014 1A60     		str	r2, [r3]
1011:bluetooth_rxtx.c **** 	DMACC1Config = 0;
 4334              		.loc 1 1011 0
 4335 0016 3D4B     		ldr	r3, .L195+8
 4336 0018 0022     		movs	r2, #0
 4337 001a 1A60     		str	r2, [r3]
1012:bluetooth_rxtx.c **** 	DMACC2Config = 0;
 4338              		.loc 1 1012 0
 4339 001c 3C4B     		ldr	r3, .L195+12
 4340 001e 0022     		movs	r2, #0
 4341 0020 1A60     		str	r2, [r3]
1013:bluetooth_rxtx.c **** 	DMACC3Config = 0;
 4342              		.loc 1 1013 0
 4343 0022 3C4B     		ldr	r3, .L195+16
 4344 0024 0022     		movs	r2, #0
 4345 0026 1A60     		str	r2, [r3]
1014:bluetooth_rxtx.c **** 	DMACC4Config = 0;
 4346              		.loc 1 1014 0
 4347 0028 3B4B     		ldr	r3, .L195+20
 4348 002a 0022     		movs	r2, #0
 4349 002c 1A60     		str	r2, [r3]
1015:bluetooth_rxtx.c **** 	DMACC5Config = 0;
 4350              		.loc 1 1015 0
 4351 002e 3B4B     		ldr	r3, .L195+24
ARM GAS  /tmp/ccHz27EZ.s 			page 94


 4352 0030 0022     		movs	r2, #0
 4353 0032 1A60     		str	r2, [r3]
1016:bluetooth_rxtx.c **** 	DMACC6Config = 0;
 4354              		.loc 1 1016 0
 4355 0034 3A4B     		ldr	r3, .L195+28
 4356 0036 0022     		movs	r2, #0
 4357 0038 1A60     		str	r2, [r3]
1017:bluetooth_rxtx.c **** 	DMACC7Config = 0;
 4358              		.loc 1 1017 0
 4359 003a 3A4B     		ldr	r3, .L195+32
 4360 003c 0022     		movs	r2, #0
 4361 003e 1A60     		str	r2, [r3]
1018:bluetooth_rxtx.c **** 	DMACIntTCClear = 0xFF;
 4362              		.loc 1 1018 0
 4363 0040 394B     		ldr	r3, .L195+36
 4364 0042 FF22     		movs	r2, #255
 4365 0044 1A60     		str	r2, [r3]
1019:bluetooth_rxtx.c **** 	DMACIntErrClr = 0xFF;
 4366              		.loc 1 1019 0
 4367 0046 394B     		ldr	r3, .L195+40
 4368 0048 FF22     		movs	r2, #255
 4369 004a 1A60     		str	r2, [r3]
1020:bluetooth_rxtx.c **** 
1021:bluetooth_rxtx.c **** 	/* DMA linked lists */
1022:bluetooth_rxtx.c **** 	rx_dma_lli1.src = (u32)&(DIO_SSP_DR);
 4370              		.loc 1 1022 0
 4371 004c 384B     		ldr	r3, .L195+44
 4372 004e 394A     		ldr	r2, .L195+48
 4373 0050 1A60     		str	r2, [r3]
1023:bluetooth_rxtx.c **** 	rx_dma_lli1.dest = (u32)&rxbuf1[0];
 4374              		.loc 1 1023 0
 4375 0052 394A     		ldr	r2, .L195+52
 4376 0054 364B     		ldr	r3, .L195+44
 4377 0056 5A60     		str	r2, [r3, #4]
1024:bluetooth_rxtx.c **** 	rx_dma_lli1.next_lli = (u32)&rx_dma_lli2;
 4378              		.loc 1 1024 0
 4379 0058 384A     		ldr	r2, .L195+56
 4380 005a 354B     		ldr	r3, .L195+44
 4381 005c 9A60     		str	r2, [r3, #8]
1025:bluetooth_rxtx.c **** 	rx_dma_lli1.control = (DMA_SIZE) |
 4382              		.loc 1 1025 0
 4383 005e 344B     		ldr	r3, .L195+44
 4384 0060 374A     		ldr	r2, .L195+60
 4385 0062 DA60     		str	r2, [r3, #12]
1026:bluetooth_rxtx.c **** 			(1 << 12) |        /* source burst size = 4 */
1027:bluetooth_rxtx.c **** 			(1 << 15) |        /* destination burst size = 4 */
1028:bluetooth_rxtx.c **** 			(0 << 18) |        /* source width 8 bits */
1029:bluetooth_rxtx.c **** 			(0 << 21) |        /* destination width 8 bits */
1030:bluetooth_rxtx.c **** 			DMACCxControl_DI | /* destination increment */
1031:bluetooth_rxtx.c **** 			DMACCxControl_I;   /* terminal count interrupt enable */
1032:bluetooth_rxtx.c **** 
1033:bluetooth_rxtx.c **** 	rx_dma_lli2.src = (u32)&(DIO_SSP_DR);
 4386              		.loc 1 1033 0
 4387 0064 354B     		ldr	r3, .L195+56
 4388 0066 334A     		ldr	r2, .L195+48
 4389 0068 1A60     		str	r2, [r3]
1034:bluetooth_rxtx.c **** 	rx_dma_lli2.dest = (u32)&rxbuf2[0];
ARM GAS  /tmp/ccHz27EZ.s 			page 95


 4390              		.loc 1 1034 0
 4391 006a 364A     		ldr	r2, .L195+64
 4392 006c 334B     		ldr	r3, .L195+56
 4393 006e 5A60     		str	r2, [r3, #4]
1035:bluetooth_rxtx.c **** 	rx_dma_lli2.next_lli = (u32)&rx_dma_lli1;
 4394              		.loc 1 1035 0
 4395 0070 2F4A     		ldr	r2, .L195+44
 4396 0072 324B     		ldr	r3, .L195+56
 4397 0074 9A60     		str	r2, [r3, #8]
1036:bluetooth_rxtx.c **** 	rx_dma_lli2.control = (DMA_SIZE) |
 4398              		.loc 1 1036 0
 4399 0076 314B     		ldr	r3, .L195+56
 4400 0078 314A     		ldr	r2, .L195+60
 4401 007a DA60     		str	r2, [r3, #12]
1037:bluetooth_rxtx.c **** 			(1 << 12) |        /* source burst size = 4 */
1038:bluetooth_rxtx.c **** 			(1 << 15) |        /* destination burst size = 4 */
1039:bluetooth_rxtx.c **** 			(0 << 18) |        /* source width 8 bits */
1040:bluetooth_rxtx.c **** 			(0 << 21) |        /* destination width 8 bits */
1041:bluetooth_rxtx.c **** 			DMACCxControl_DI | /* destination increment */
1042:bluetooth_rxtx.c **** 			DMACCxControl_I;   /* terminal count interrupt enable */
1043:bluetooth_rxtx.c **** 
1044:bluetooth_rxtx.c **** 	/* disable DMA interrupts */
1045:bluetooth_rxtx.c **** 	ICER0 = ICER0_ICE_DMA;
 4402              		.loc 1 1045 0
 4403 007c 324B     		ldr	r3, .L195+68
 4404 007e 4FF08062 		mov	r2, #67108864
 4405 0082 1A60     		str	r2, [r3]
1046:bluetooth_rxtx.c **** 
1047:bluetooth_rxtx.c **** 	/* enable DMA globally */
1048:bluetooth_rxtx.c **** 	DMACConfig = DMACConfig_E;
 4406              		.loc 1 1048 0
 4407 0084 314B     		ldr	r3, .L195+72
 4408 0086 0122     		movs	r2, #1
 4409 0088 1A60     		str	r2, [r3]
1049:bluetooth_rxtx.c **** 	while (!(DMACConfig & DMACConfig_E));
 4410              		.loc 1 1049 0
 4411 008a 00BF     		nop
 4412              	.L194:
 4413              		.loc 1 1049 0 is_stmt 0 discriminator 1
 4414 008c 2F4B     		ldr	r3, .L195+72
 4415 008e 1B68     		ldr	r3, [r3]
 4416 0090 03F00103 		and	r3, r3, #1
 4417 0094 002B     		cmp	r3, #0
 4418 0096 F9D0     		beq	.L194
1050:bluetooth_rxtx.c **** 
1051:bluetooth_rxtx.c **** 	/* configure DMA channel 1 */
1052:bluetooth_rxtx.c **** 	DMACC0SrcAddr = rx_dma_lli1.src;
 4419              		.loc 1 1052 0 is_stmt 1
 4420 0098 2D4A     		ldr	r2, .L195+76
 4421 009a 254B     		ldr	r3, .L195+44
 4422 009c 1B68     		ldr	r3, [r3]
 4423 009e 1360     		str	r3, [r2]
1053:bluetooth_rxtx.c **** 	DMACC0DestAddr = rx_dma_lli1.dest;
 4424              		.loc 1 1053 0
 4425 00a0 2C4A     		ldr	r2, .L195+80
 4426 00a2 234B     		ldr	r3, .L195+44
 4427 00a4 5B68     		ldr	r3, [r3, #4]
ARM GAS  /tmp/ccHz27EZ.s 			page 96


 4428 00a6 1360     		str	r3, [r2]
1054:bluetooth_rxtx.c **** 	DMACC0LLI = rx_dma_lli1.next_lli;
 4429              		.loc 1 1054 0
 4430 00a8 2B4A     		ldr	r2, .L195+84
 4431 00aa 214B     		ldr	r3, .L195+44
 4432 00ac 9B68     		ldr	r3, [r3, #8]
 4433 00ae 1360     		str	r3, [r2]
1055:bluetooth_rxtx.c **** 	DMACC0Control = rx_dma_lli1.control;
 4434              		.loc 1 1055 0
 4435 00b0 2A4A     		ldr	r2, .L195+88
 4436 00b2 1F4B     		ldr	r3, .L195+44
 4437 00b4 DB68     		ldr	r3, [r3, #12]
 4438 00b6 1360     		str	r3, [r2]
1056:bluetooth_rxtx.c **** 	DMACC0Config =
 4439              		.loc 1 1056 0
 4440 00b8 134B     		ldr	r3, .L195+4
 4441 00ba 4DF20602 		movw	r2, #53254
 4442 00be 1A60     		str	r2, [r3]
1057:bluetooth_rxtx.c **** 			DIO_SSP_SRC |
1058:bluetooth_rxtx.c **** 			(0x2 << 11) |           /* peripheral to memory */
1059:bluetooth_rxtx.c **** 			DMACCxConfig_IE |       /* allow error interrupts */
1060:bluetooth_rxtx.c **** 			DMACCxConfig_ITC;       /* allow terminal count interrupts */
1061:bluetooth_rxtx.c **** 
1062:bluetooth_rxtx.c **** 	active_buf_clkn_high = (clkn >> 20) & 0xff;
 4443              		.loc 1 1062 0
 4444 00c0 274B     		ldr	r3, .L195+92
 4445 00c2 1B68     		ldr	r3, [r3]
 4446 00c4 1B0D     		lsrs	r3, r3, #20
 4447 00c6 DBB2     		uxtb	r3, r3
 4448 00c8 264A     		ldr	r2, .L195+96
 4449 00ca 1360     		str	r3, [r2]
1063:bluetooth_rxtx.c **** 	active_buf_clk100ns = CLK100NS;
 4450              		.loc 1 1063 0
 4451 00cc 244B     		ldr	r3, .L195+92
 4452 00ce 1B68     		ldr	r3, [r3]
 4453 00d0 C3F31303 		ubfx	r3, r3, #0, #20
 4454 00d4 40F63542 		movw	r2, #3125
 4455 00d8 02FB03F2 		mul	r2, r2, r3
 4456 00dc 224B     		ldr	r3, .L195+100
 4457 00de 1B68     		ldr	r3, [r3]
 4458 00e0 1344     		add	r3, r3, r2
 4459 00e2 224A     		ldr	r2, .L195+104
 4460 00e4 1360     		str	r3, [r2]
1064:bluetooth_rxtx.c **** 	active_buf_channel = channel;
 4461              		.loc 1 1064 0
 4462 00e6 224B     		ldr	r3, .L195+108
 4463 00e8 1B88     		ldrh	r3, [r3]	@ movhi
 4464 00ea 9AB2     		uxth	r2, r3
 4465 00ec 214B     		ldr	r3, .L195+112
 4466 00ee 1A80     		strh	r2, [r3]	@ movhi
1065:bluetooth_rxtx.c **** 
1066:bluetooth_rxtx.c **** 	/* reset interrupt counters */
1067:bluetooth_rxtx.c **** 	rx_tc = 0;
 4467              		.loc 1 1067 0
 4468 00f0 214B     		ldr	r3, .L195+116
 4469 00f2 0022     		movs	r2, #0
 4470 00f4 1A60     		str	r2, [r3]
ARM GAS  /tmp/ccHz27EZ.s 			page 97


1068:bluetooth_rxtx.c **** 	rx_err = 0;
 4471              		.loc 1 1068 0
 4472 00f6 214B     		ldr	r3, .L195+120
 4473 00f8 0022     		movs	r2, #0
 4474 00fa 1A60     		str	r2, [r3]
1069:bluetooth_rxtx.c **** }
 4475              		.loc 1 1069 0
 4476 00fc BD46     		mov	sp, r7
 4477              		.cfi_def_cfa_register 13
 4478              		@ sp needed
 4479 00fe 5DF8047B 		ldr	r7, [sp], #4
 4480              		.cfi_restore 7
 4481              		.cfi_def_cfa_offset 0
 4482 0102 7047     		bx	lr
 4483              	.L196:
 4484              		.align	2
 4485              	.L195:
 4486 0104 C4C00F40 		.word	1074774212
 4487 0108 10410050 		.word	1342193936
 4488 010c 30410050 		.word	1342193968
 4489 0110 50410050 		.word	1342194000
 4490 0114 70410050 		.word	1342194032
 4491 0118 90410050 		.word	1342194064
 4492 011c B0410050 		.word	1342194096
 4493 0120 D0410050 		.word	1342194128
 4494 0124 F0410050 		.word	1342194160
 4495 0128 08400050 		.word	1342193672
 4496 012c 10400050 		.word	1342193680
 4497 0130 00000000 		.word	rx_dma_lli1
 4498 0134 08000340 		.word	1073938440
 4499 0138 00000000 		.word	rxbuf1
 4500 013c 00000000 		.word	rx_dma_lli2
 4501 0140 32900088 		.word	-2013229006
 4502 0144 00000000 		.word	rxbuf2
 4503 0148 80E100E0 		.word	-536813184
 4504 014c 30400050 		.word	1342193712
 4505 0150 00410050 		.word	1342193920
 4506 0154 04410050 		.word	1342193924
 4507 0158 08410050 		.word	1342193928
 4508 015c 0C410050 		.word	1342193932
 4509 0160 00000000 		.word	clkn
 4510 0164 00000000 		.word	active_buf_clkn_high
 4511 0168 08400040 		.word	1073758216
 4512 016c 00000000 		.word	active_buf_clk100ns
 4513 0170 00000000 		.word	channel
 4514 0174 00000000 		.word	active_buf_channel
 4515 0178 00000000 		.word	rx_tc
 4516 017c 00000000 		.word	rx_err
 4517              		.cfi_endproc
 4518              	.LFE17:
 4520              		.section	.text.dma_init_le,"ax",%progbits
 4521              		.align	2
 4522              		.thumb
 4523              		.thumb_func
 4525              	dma_init_le:
 4526              	.LFB18:
1070:bluetooth_rxtx.c **** 
ARM GAS  /tmp/ccHz27EZ.s 			page 98


1071:bluetooth_rxtx.c **** static void dma_init_le()
1072:bluetooth_rxtx.c **** {
 4527              		.loc 1 1072 0
 4528              		.cfi_startproc
 4529              		@ args = 0, pretend = 0, frame = 8
 4530              		@ frame_needed = 1, uses_anonymous_args = 0
 4531              		@ link register save eliminated.
 4532 0000 80B4     		push	{r7}
 4533              		.cfi_def_cfa_offset 4
 4534              		.cfi_offset 7, -4
 4535 0002 83B0     		sub	sp, sp, #12
 4536              		.cfi_def_cfa_offset 16
 4537 0004 00AF     		add	r7, sp, #0
 4538              		.cfi_def_cfa_register 7
1073:bluetooth_rxtx.c **** 	int i;
1074:bluetooth_rxtx.c **** 
1075:bluetooth_rxtx.c **** 	/* power up GPDMA controller */
1076:bluetooth_rxtx.c **** 	PCONP |= PCONP_PCGPDMA;
 4539              		.loc 1 1076 0
 4540 0006 4B4A     		ldr	r2, .L203
 4541 0008 4A4B     		ldr	r3, .L203
 4542 000a 1B68     		ldr	r3, [r3]
 4543 000c 43F00053 		orr	r3, r3, #536870912
 4544 0010 1360     		str	r3, [r2]
1077:bluetooth_rxtx.c **** 
1078:bluetooth_rxtx.c **** 	/* zero out channel configs and clear interrupts */
1079:bluetooth_rxtx.c **** 	DMACC0Config = 0;
 4545              		.loc 1 1079 0
 4546 0012 494B     		ldr	r3, .L203+4
 4547 0014 0022     		movs	r2, #0
 4548 0016 1A60     		str	r2, [r3]
1080:bluetooth_rxtx.c **** 	DMACC1Config = 0;
 4549              		.loc 1 1080 0
 4550 0018 484B     		ldr	r3, .L203+8
 4551 001a 0022     		movs	r2, #0
 4552 001c 1A60     		str	r2, [r3]
1081:bluetooth_rxtx.c **** 	DMACC2Config = 0;
 4553              		.loc 1 1081 0
 4554 001e 484B     		ldr	r3, .L203+12
 4555 0020 0022     		movs	r2, #0
 4556 0022 1A60     		str	r2, [r3]
1082:bluetooth_rxtx.c **** 	DMACC3Config = 0;
 4557              		.loc 1 1082 0
 4558 0024 474B     		ldr	r3, .L203+16
 4559 0026 0022     		movs	r2, #0
 4560 0028 1A60     		str	r2, [r3]
1083:bluetooth_rxtx.c **** 	DMACC4Config = 0;
 4561              		.loc 1 1083 0
 4562 002a 474B     		ldr	r3, .L203+20
 4563 002c 0022     		movs	r2, #0
 4564 002e 1A60     		str	r2, [r3]
1084:bluetooth_rxtx.c **** 	DMACC5Config = 0;
 4565              		.loc 1 1084 0
 4566 0030 464B     		ldr	r3, .L203+24
 4567 0032 0022     		movs	r2, #0
 4568 0034 1A60     		str	r2, [r3]
1085:bluetooth_rxtx.c **** 	DMACC6Config = 0;
ARM GAS  /tmp/ccHz27EZ.s 			page 99


 4569              		.loc 1 1085 0
 4570 0036 464B     		ldr	r3, .L203+28
 4571 0038 0022     		movs	r2, #0
 4572 003a 1A60     		str	r2, [r3]
1086:bluetooth_rxtx.c **** 	DMACC7Config = 0;
 4573              		.loc 1 1086 0
 4574 003c 454B     		ldr	r3, .L203+32
 4575 003e 0022     		movs	r2, #0
 4576 0040 1A60     		str	r2, [r3]
1087:bluetooth_rxtx.c **** 	DMACIntTCClear = 0xFF;
 4577              		.loc 1 1087 0
 4578 0042 454B     		ldr	r3, .L203+36
 4579 0044 FF22     		movs	r2, #255
 4580 0046 1A60     		str	r2, [r3]
1088:bluetooth_rxtx.c **** 	DMACIntErrClr = 0xFF;
 4581              		.loc 1 1088 0
 4582 0048 444B     		ldr	r3, .L203+40
 4583 004a FF22     		movs	r2, #255
 4584 004c 1A60     		str	r2, [r3]
1089:bluetooth_rxtx.c **** 
1090:bluetooth_rxtx.c **** 	/* enable DMA globally */
1091:bluetooth_rxtx.c **** 	DMACConfig = DMACConfig_E;
 4585              		.loc 1 1091 0
 4586 004e 444B     		ldr	r3, .L203+44
 4587 0050 0122     		movs	r2, #1
 4588 0052 1A60     		str	r2, [r3]
1092:bluetooth_rxtx.c **** 	while (!(DMACConfig & DMACConfig_E));
 4589              		.loc 1 1092 0
 4590 0054 00BF     		nop
 4591              	.L198:
 4592              		.loc 1 1092 0 is_stmt 0 discriminator 1
 4593 0056 424B     		ldr	r3, .L203+44
 4594 0058 1B68     		ldr	r3, [r3]
 4595 005a 03F00103 		and	r3, r3, #1
 4596 005e 002B     		cmp	r3, #0
 4597 0060 F9D0     		beq	.L198
1093:bluetooth_rxtx.c **** 
1094:bluetooth_rxtx.c **** 	for (i = 0; i < 11; ++i) {
 4598              		.loc 1 1094 0 is_stmt 1
 4599 0062 0023     		movs	r3, #0
 4600 0064 7B60     		str	r3, [r7, #4]
 4601 0066 2AE0     		b	.L199
 4602              	.L202:
1095:bluetooth_rxtx.c **** 		le_dma_lli[i].src = (u32)&(DIO_SSP_DR);
 4603              		.loc 1 1095 0
 4604 0068 3E4A     		ldr	r2, .L203+48
 4605 006a 7B68     		ldr	r3, [r7, #4]
 4606 006c 1B01     		lsls	r3, r3, #4
 4607 006e 1344     		add	r3, r3, r2
 4608 0070 3D4A     		ldr	r2, .L203+52
 4609 0072 1A60     		str	r2, [r3]
1096:bluetooth_rxtx.c **** 		le_dma_lli[i].dest = (u32)&rxbuf1[4 * i];
 4610              		.loc 1 1096 0
 4611 0074 7B68     		ldr	r3, [r7, #4]
 4612 0076 9B00     		lsls	r3, r3, #2
 4613 0078 3C4A     		ldr	r2, .L203+56
 4614 007a 1344     		add	r3, r3, r2
ARM GAS  /tmp/ccHz27EZ.s 			page 100


 4615 007c 1946     		mov	r1, r3
 4616 007e 394A     		ldr	r2, .L203+48
 4617 0080 7B68     		ldr	r3, [r7, #4]
 4618 0082 1B01     		lsls	r3, r3, #4
 4619 0084 1344     		add	r3, r3, r2
 4620 0086 5960     		str	r1, [r3, #4]
1097:bluetooth_rxtx.c **** 		le_dma_lli[i].next_lli = i < 10 ? (u32)&le_dma_lli[i+1] : 0;
 4621              		.loc 1 1097 0
 4622 0088 7B68     		ldr	r3, [r7, #4]
 4623 008a 092B     		cmp	r3, #9
 4624 008c 06DC     		bgt	.L200
 4625              		.loc 1 1097 0 is_stmt 0 discriminator 1
 4626 008e 7B68     		ldr	r3, [r7, #4]
 4627 0090 0133     		adds	r3, r3, #1
 4628 0092 1B01     		lsls	r3, r3, #4
 4629 0094 334A     		ldr	r2, .L203+48
 4630 0096 1344     		add	r3, r3, r2
 4631 0098 1A46     		mov	r2, r3
 4632 009a 00E0     		b	.L201
 4633              	.L200:
 4634              		.loc 1 1097 0 discriminator 2
 4635 009c 0022     		movs	r2, #0
 4636              	.L201:
 4637              		.loc 1 1097 0 discriminator 4
 4638 009e 3149     		ldr	r1, .L203+48
 4639 00a0 7B68     		ldr	r3, [r7, #4]
 4640 00a2 1B01     		lsls	r3, r3, #4
 4641 00a4 0B44     		add	r3, r3, r1
 4642 00a6 0833     		adds	r3, r3, #8
 4643 00a8 1A60     		str	r2, [r3]
1098:bluetooth_rxtx.c **** 		le_dma_lli[i].control = 4 |
 4644              		.loc 1 1098 0 is_stmt 1 discriminator 4
 4645 00aa 2E4A     		ldr	r2, .L203+48
 4646 00ac 7B68     		ldr	r3, [r7, #4]
 4647 00ae 1B01     		lsls	r3, r3, #4
 4648 00b0 1344     		add	r3, r3, r2
 4649 00b2 0833     		adds	r3, r3, #8
 4650 00b4 2E4A     		ldr	r2, .L203+60
 4651 00b6 5A60     		str	r2, [r3, #4]
1094:bluetooth_rxtx.c **** 		le_dma_lli[i].src = (u32)&(DIO_SSP_DR);
 4652              		.loc 1 1094 0 discriminator 4
 4653 00b8 7B68     		ldr	r3, [r7, #4]
 4654 00ba 0133     		adds	r3, r3, #1
 4655 00bc 7B60     		str	r3, [r7, #4]
 4656              	.L199:
1094:bluetooth_rxtx.c **** 		le_dma_lli[i].src = (u32)&(DIO_SSP_DR);
 4657              		.loc 1 1094 0 is_stmt 0 discriminator 2
 4658 00be 7B68     		ldr	r3, [r7, #4]
 4659 00c0 0A2B     		cmp	r3, #10
 4660 00c2 D1DD     		ble	.L202
1099:bluetooth_rxtx.c **** 				(1 << 12) |        /* source burst size = 4 */
1100:bluetooth_rxtx.c **** 				(0 << 15) |        /* destination burst size = 1 */
1101:bluetooth_rxtx.c **** 				(0 << 18) |        /* source width 8 bits */
1102:bluetooth_rxtx.c **** 				(0 << 21) |        /* destination width 8 bits */
1103:bluetooth_rxtx.c **** 				DMACCxControl_DI | /* destination increment */
1104:bluetooth_rxtx.c **** 				DMACCxControl_I;   /* terminal count interrupt enable */
1105:bluetooth_rxtx.c **** 	}
ARM GAS  /tmp/ccHz27EZ.s 			page 101


1106:bluetooth_rxtx.c **** 
1107:bluetooth_rxtx.c **** 	/* configure DMA channel 0 */
1108:bluetooth_rxtx.c **** 	DMACC0SrcAddr = le_dma_lli[0].src;
 4661              		.loc 1 1108 0 is_stmt 1
 4662 00c4 2B4A     		ldr	r2, .L203+64
 4663 00c6 274B     		ldr	r3, .L203+48
 4664 00c8 1B68     		ldr	r3, [r3]
 4665 00ca 1360     		str	r3, [r2]
1109:bluetooth_rxtx.c **** 	DMACC0DestAddr = le_dma_lli[0].dest;
 4666              		.loc 1 1109 0
 4667 00cc 2A4A     		ldr	r2, .L203+68
 4668 00ce 254B     		ldr	r3, .L203+48
 4669 00d0 5B68     		ldr	r3, [r3, #4]
 4670 00d2 1360     		str	r3, [r2]
1110:bluetooth_rxtx.c **** 	DMACC0LLI = le_dma_lli[0].next_lli;
 4671              		.loc 1 1110 0
 4672 00d4 294A     		ldr	r2, .L203+72
 4673 00d6 234B     		ldr	r3, .L203+48
 4674 00d8 9B68     		ldr	r3, [r3, #8]
 4675 00da 1360     		str	r3, [r2]
1111:bluetooth_rxtx.c **** 	DMACC0Control = le_dma_lli[0].control;
 4676              		.loc 1 1111 0
 4677 00dc 284A     		ldr	r2, .L203+76
 4678 00de 214B     		ldr	r3, .L203+48
 4679 00e0 DB68     		ldr	r3, [r3, #12]
 4680 00e2 1360     		str	r3, [r2]
1112:bluetooth_rxtx.c **** 	DMACC0Config =
 4681              		.loc 1 1112 0
 4682 00e4 144B     		ldr	r3, .L203+4
 4683 00e6 4DF20602 		movw	r2, #53254
 4684 00ea 1A60     		str	r2, [r3]
1113:bluetooth_rxtx.c **** 			DIO_SSP_SRC |
1114:bluetooth_rxtx.c **** 			(0x2 << 11) |           /* peripheral to memory */
1115:bluetooth_rxtx.c **** 			DMACCxConfig_IE |       /* allow error interrupts */
1116:bluetooth_rxtx.c **** 			DMACCxConfig_ITC;       /* allow terminal count interrupts */
1117:bluetooth_rxtx.c **** 
1118:bluetooth_rxtx.c **** 	active_buf_clkn_high = (clkn >> 20) & 0xff;
 4685              		.loc 1 1118 0
 4686 00ec 254B     		ldr	r3, .L203+80
 4687 00ee 1B68     		ldr	r3, [r3]
 4688 00f0 1B0D     		lsrs	r3, r3, #20
 4689 00f2 DBB2     		uxtb	r3, r3
 4690 00f4 244A     		ldr	r2, .L203+84
 4691 00f6 1360     		str	r3, [r2]
1119:bluetooth_rxtx.c **** 	active_buf_clk100ns = CLK100NS;
 4692              		.loc 1 1119 0
 4693 00f8 224B     		ldr	r3, .L203+80
 4694 00fa 1B68     		ldr	r3, [r3]
 4695 00fc C3F31303 		ubfx	r3, r3, #0, #20
 4696 0100 40F63542 		movw	r2, #3125
 4697 0104 02FB03F2 		mul	r2, r2, r3
 4698 0108 204B     		ldr	r3, .L203+88
 4699 010a 1B68     		ldr	r3, [r3]
 4700 010c 1344     		add	r3, r3, r2
 4701 010e 204A     		ldr	r2, .L203+92
 4702 0110 1360     		str	r3, [r2]
1120:bluetooth_rxtx.c **** 	active_buf_channel = channel;
ARM GAS  /tmp/ccHz27EZ.s 			page 102


 4703              		.loc 1 1120 0
 4704 0112 204B     		ldr	r3, .L203+96
 4705 0114 1B88     		ldrh	r3, [r3]	@ movhi
 4706 0116 9AB2     		uxth	r2, r3
 4707 0118 1F4B     		ldr	r3, .L203+100
 4708 011a 1A80     		strh	r2, [r3]	@ movhi
1121:bluetooth_rxtx.c **** 
1122:bluetooth_rxtx.c **** 	/* reset interrupt counters */
1123:bluetooth_rxtx.c **** 	rx_tc = 0;
 4709              		.loc 1 1123 0
 4710 011c 1F4B     		ldr	r3, .L203+104
 4711 011e 0022     		movs	r2, #0
 4712 0120 1A60     		str	r2, [r3]
1124:bluetooth_rxtx.c **** 	rx_err = 0;
 4713              		.loc 1 1124 0
 4714 0122 1F4B     		ldr	r3, .L203+108
 4715 0124 0022     		movs	r2, #0
 4716 0126 1A60     		str	r2, [r3]
1125:bluetooth_rxtx.c **** }
 4717              		.loc 1 1125 0
 4718 0128 0C37     		adds	r7, r7, #12
 4719              		.cfi_def_cfa_offset 4
 4720 012a BD46     		mov	sp, r7
 4721              		.cfi_def_cfa_register 13
 4722              		@ sp needed
 4723 012c 5DF8047B 		ldr	r7, [sp], #4
 4724              		.cfi_restore 7
 4725              		.cfi_def_cfa_offset 0
 4726 0130 7047     		bx	lr
 4727              	.L204:
 4728 0132 00BF     		.align	2
 4729              	.L203:
 4730 0134 C4C00F40 		.word	1074774212
 4731 0138 10410050 		.word	1342193936
 4732 013c 30410050 		.word	1342193968
 4733 0140 50410050 		.word	1342194000
 4734 0144 70410050 		.word	1342194032
 4735 0148 90410050 		.word	1342194064
 4736 014c B0410050 		.word	1342194096
 4737 0150 D0410050 		.word	1342194128
 4738 0154 F0410050 		.word	1342194160
 4739 0158 08400050 		.word	1342193672
 4740 015c 10400050 		.word	1342193680
 4741 0160 30400050 		.word	1342193712
 4742 0164 00000000 		.word	le_dma_lli
 4743 0168 08000340 		.word	1073938440
 4744 016c 00000000 		.word	rxbuf1
 4745 0170 04100088 		.word	-2013261820
 4746 0174 00410050 		.word	1342193920
 4747 0178 04410050 		.word	1342193924
 4748 017c 08410050 		.word	1342193928
 4749 0180 0C410050 		.word	1342193932
 4750 0184 00000000 		.word	clkn
 4751 0188 00000000 		.word	active_buf_clkn_high
 4752 018c 08400040 		.word	1073758216
 4753 0190 00000000 		.word	active_buf_clk100ns
 4754 0194 00000000 		.word	channel
ARM GAS  /tmp/ccHz27EZ.s 			page 103


 4755 0198 00000000 		.word	active_buf_channel
 4756 019c 00000000 		.word	rx_tc
 4757 01a0 00000000 		.word	rx_err
 4758              		.cfi_endproc
 4759              	.LFE18:
 4761              		.section	.text.bt_stream_dma_handler,"ax",%progbits
 4762              		.align	2
 4763              		.global	bt_stream_dma_handler
 4764              		.thumb
 4765              		.thumb_func
 4767              	bt_stream_dma_handler:
 4768              	.LFB19:
1126:bluetooth_rxtx.c **** 
1127:bluetooth_rxtx.c **** void bt_stream_dma_handler(void) {
 4769              		.loc 1 1127 0
 4770              		.cfi_startproc
 4771              		@ args = 0, pretend = 0, frame = 0
 4772              		@ frame_needed = 1, uses_anonymous_args = 0
 4773              		@ link register save eliminated.
 4774 0000 80B4     		push	{r7}
 4775              		.cfi_def_cfa_offset 4
 4776              		.cfi_offset 7, -4
 4777 0002 00AF     		add	r7, sp, #0
 4778              		.cfi_def_cfa_register 7
1128:bluetooth_rxtx.c **** 	idle_buf_clkn_high = active_buf_clkn_high;
 4779              		.loc 1 1128 0
 4780 0004 254B     		ldr	r3, .L208
 4781 0006 1B68     		ldr	r3, [r3]
 4782 0008 254A     		ldr	r2, .L208+4
 4783 000a 1360     		str	r3, [r2]
1129:bluetooth_rxtx.c **** 	active_buf_clkn_high = (clkn >> 20) & 0xff;
 4784              		.loc 1 1129 0
 4785 000c 254B     		ldr	r3, .L208+8
 4786 000e 1B68     		ldr	r3, [r3]
 4787 0010 1B0D     		lsrs	r3, r3, #20
 4788 0012 DBB2     		uxtb	r3, r3
 4789 0014 214A     		ldr	r2, .L208
 4790 0016 1360     		str	r3, [r2]
1130:bluetooth_rxtx.c **** 
1131:bluetooth_rxtx.c **** 	idle_buf_clk100ns = active_buf_clk100ns;
 4791              		.loc 1 1131 0
 4792 0018 234B     		ldr	r3, .L208+12
 4793 001a 1B68     		ldr	r3, [r3]
 4794 001c 234A     		ldr	r2, .L208+16
 4795 001e 1360     		str	r3, [r2]
1132:bluetooth_rxtx.c **** 	active_buf_clk100ns = CLK100NS;
 4796              		.loc 1 1132 0
 4797 0020 204B     		ldr	r3, .L208+8
 4798 0022 1B68     		ldr	r3, [r3]
 4799 0024 C3F31303 		ubfx	r3, r3, #0, #20
 4800 0028 40F63542 		movw	r2, #3125
 4801 002c 02FB03F2 		mul	r2, r2, r3
 4802 0030 1F4B     		ldr	r3, .L208+20
 4803 0032 1B68     		ldr	r3, [r3]
 4804 0034 1344     		add	r3, r3, r2
 4805 0036 1C4A     		ldr	r2, .L208+12
 4806 0038 1360     		str	r3, [r2]
ARM GAS  /tmp/ccHz27EZ.s 			page 104


1133:bluetooth_rxtx.c **** 
1134:bluetooth_rxtx.c **** 	idle_buf_channel = active_buf_channel;
 4807              		.loc 1 1134 0
 4808 003a 1E4B     		ldr	r3, .L208+24
 4809 003c 1B88     		ldrh	r3, [r3]	@ movhi
 4810 003e 9AB2     		uxth	r2, r3
 4811 0040 1D4B     		ldr	r3, .L208+28
 4812 0042 1A80     		strh	r2, [r3]	@ movhi
1135:bluetooth_rxtx.c **** 	active_buf_channel = channel;
 4813              		.loc 1 1135 0
 4814 0044 1D4B     		ldr	r3, .L208+32
 4815 0046 1B88     		ldrh	r3, [r3]	@ movhi
 4816 0048 9AB2     		uxth	r2, r3
 4817 004a 1A4B     		ldr	r3, .L208+24
 4818 004c 1A80     		strh	r2, [r3]	@ movhi
1136:bluetooth_rxtx.c **** 
1137:bluetooth_rxtx.c **** 	/* interrupt on channel 0 */
1138:bluetooth_rxtx.c **** 	if (DMACIntStat & (1 << 0)) {
 4819              		.loc 1 1138 0
 4820 004e 1C4B     		ldr	r3, .L208+36
 4821 0050 1B68     		ldr	r3, [r3]
 4822 0052 03F00103 		and	r3, r3, #1
 4823 0056 002B     		cmp	r3, #0
 4824 0058 1BD0     		beq	.L205
1139:bluetooth_rxtx.c **** 		if (DMACIntTCStat & (1 << 0)) {
 4825              		.loc 1 1139 0
 4826 005a 1A4B     		ldr	r3, .L208+40
 4827 005c 1B68     		ldr	r3, [r3]
 4828 005e 03F00103 		and	r3, r3, #1
 4829 0062 002B     		cmp	r3, #0
 4830 0064 07D0     		beq	.L207
1140:bluetooth_rxtx.c **** 			DMACIntTCClear = (1 << 0);
 4831              		.loc 1 1140 0
 4832 0066 184B     		ldr	r3, .L208+44
 4833 0068 0122     		movs	r2, #1
 4834 006a 1A60     		str	r2, [r3]
1141:bluetooth_rxtx.c **** 			++rx_tc;
 4835              		.loc 1 1141 0
 4836 006c 174B     		ldr	r3, .L208+48
 4837 006e 1B68     		ldr	r3, [r3]
 4838 0070 0133     		adds	r3, r3, #1
 4839 0072 164A     		ldr	r2, .L208+48
 4840 0074 1360     		str	r3, [r2]
 4841              	.L207:
1142:bluetooth_rxtx.c **** 		}
1143:bluetooth_rxtx.c **** 		if (DMACIntErrStat & (1 << 0)) {
 4842              		.loc 1 1143 0
 4843 0076 164B     		ldr	r3, .L208+52
 4844 0078 1B68     		ldr	r3, [r3]
 4845 007a 03F00103 		and	r3, r3, #1
 4846 007e 002B     		cmp	r3, #0
 4847 0080 07D0     		beq	.L205
1144:bluetooth_rxtx.c **** 			DMACIntErrClr = (1 << 0);
 4848              		.loc 1 1144 0
 4849 0082 144B     		ldr	r3, .L208+56
 4850 0084 0122     		movs	r2, #1
 4851 0086 1A60     		str	r2, [r3]
ARM GAS  /tmp/ccHz27EZ.s 			page 105


1145:bluetooth_rxtx.c **** 			++rx_err;
 4852              		.loc 1 1145 0
 4853 0088 134B     		ldr	r3, .L208+60
 4854 008a 1B68     		ldr	r3, [r3]
 4855 008c 0133     		adds	r3, r3, #1
 4856 008e 124A     		ldr	r2, .L208+60
 4857 0090 1360     		str	r3, [r2]
 4858              	.L205:
1146:bluetooth_rxtx.c **** 		}
1147:bluetooth_rxtx.c **** 	}
1148:bluetooth_rxtx.c **** }
 4859              		.loc 1 1148 0
 4860 0092 BD46     		mov	sp, r7
 4861              		.cfi_def_cfa_register 13
 4862              		@ sp needed
 4863 0094 5DF8047B 		ldr	r7, [sp], #4
 4864              		.cfi_restore 7
 4865              		.cfi_def_cfa_offset 0
 4866 0098 7047     		bx	lr
 4867              	.L209:
 4868 009a 00BF     		.align	2
 4869              	.L208:
 4870 009c 00000000 		.word	active_buf_clkn_high
 4871 00a0 00000000 		.word	idle_buf_clkn_high
 4872 00a4 00000000 		.word	clkn
 4873 00a8 00000000 		.word	active_buf_clk100ns
 4874 00ac 00000000 		.word	idle_buf_clk100ns
 4875 00b0 08400040 		.word	1073758216
 4876 00b4 00000000 		.word	active_buf_channel
 4877 00b8 00000000 		.word	idle_buf_channel
 4878 00bc 00000000 		.word	channel
 4879 00c0 00400050 		.word	1342193664
 4880 00c4 04400050 		.word	1342193668
 4881 00c8 08400050 		.word	1342193672
 4882 00cc 00000000 		.word	rx_tc
 4883 00d0 0C400050 		.word	1342193676
 4884 00d4 10400050 		.word	1342193680
 4885 00d8 00000000 		.word	rx_err
 4886              		.cfi_endproc
 4887              	.LFE19:
 4889              		.section	.text.DMA_IRQHandler,"ax",%progbits
 4890              		.align	2
 4891              		.global	DMA_IRQHandler
 4892              		.thumb
 4893              		.thumb_func
 4895              	DMA_IRQHandler:
 4896              	.LFB20:
1149:bluetooth_rxtx.c **** 
1150:bluetooth_rxtx.c **** void DMA_IRQHandler()
1151:bluetooth_rxtx.c **** {
 4897              		.loc 1 1151 0
 4898              		.cfi_startproc
 4899              		@ args = 0, pretend = 0, frame = 0
 4900              		@ frame_needed = 1, uses_anonymous_args = 0
 4901 0000 80B5     		push	{r7, lr}
 4902              		.cfi_def_cfa_offset 8
 4903              		.cfi_offset 7, -8
ARM GAS  /tmp/ccHz27EZ.s 			page 106


 4904              		.cfi_offset 14, -4
 4905 0002 00AF     		add	r7, sp, #0
 4906              		.cfi_def_cfa_register 7
1152:bluetooth_rxtx.c **** 	switch (mode) {
 4907              		.loc 1 1152 0
 4908 0004 124B     		ldr	r3, .L214
 4909 0006 1B78     		ldrb	r3, [r3]
 4910 0008 DBB2     		uxtb	r3, r3
 4911 000a 013B     		subs	r3, r3, #1
 4912 000c 0B2B     		cmp	r3, #11
 4913 000e 1ED8     		bhi	.L210
 4914 0010 01A2     		adr	r2, .L213
 4915 0012 52F823F0 		ldr	pc, [r2, r3, lsl #2]
 4916 0016 00BF     		.p2align 2
 4917              	.L213:
 4918 0018 49000000 		.word	.L212+1
 4919 001c 4F000000 		.word	.L210+1
 4920 0020 4F000000 		.word	.L210+1
 4921 0024 49000000 		.word	.L212+1
 4922 0028 4F000000 		.word	.L210+1
 4923 002c 4F000000 		.word	.L210+1
 4924 0030 4F000000 		.word	.L210+1
 4925 0034 49000000 		.word	.L212+1
 4926 0038 49000000 		.word	.L212+1
 4927 003c 49000000 		.word	.L212+1
 4928 0040 4F000000 		.word	.L210+1
 4929 0044 49000000 		.word	.L212+1
 4930              		.p2align 1
 4931              	.L212:
1153:bluetooth_rxtx.c **** 		case MODE_RX_SYMBOLS:
1154:bluetooth_rxtx.c **** 		case MODE_SPECAN:
1155:bluetooth_rxtx.c **** 		case MODE_BT_FOLLOW:
1156:bluetooth_rxtx.c **** 		case MODE_BT_FOLLOW_LE:
1157:bluetooth_rxtx.c **** 		case MODE_BT_PROMISC_LE:
1158:bluetooth_rxtx.c **** 		case MODE_BT_SLAVE_LE:
1159:bluetooth_rxtx.c **** 			bt_stream_dma_handler();
 4932              		.loc 1 1159 0
 4933 0048 FFF7FEFF 		bl	bt_stream_dma_handler
1160:bluetooth_rxtx.c **** 			break;
 4934              		.loc 1 1160 0
 4935 004c 00BF     		nop
 4936              	.L210:
1161:bluetooth_rxtx.c **** 	}
1162:bluetooth_rxtx.c **** }
 4937              		.loc 1 1162 0
 4938 004e 80BD     		pop	{r7, pc}
 4939              	.L215:
 4940              		.align	2
 4941              	.L214:
 4942 0050 00000000 		.word	mode
 4943              		.cfi_endproc
 4944              	.LFE20:
 4946              		.section	.text.dio_ssp_start,"ax",%progbits
 4947              		.align	2
 4948              		.thumb
 4949              		.thumb_func
 4951              	dio_ssp_start:
ARM GAS  /tmp/ccHz27EZ.s 			page 107


 4952              	.LFB21:
1163:bluetooth_rxtx.c **** 
1164:bluetooth_rxtx.c **** static void dio_ssp_start()
1165:bluetooth_rxtx.c **** {
 4953              		.loc 1 1165 0
 4954              		.cfi_startproc
 4955              		@ args = 0, pretend = 0, frame = 0
 4956              		@ frame_needed = 1, uses_anonymous_args = 0
 4957              		@ link register save eliminated.
 4958 0000 80B4     		push	{r7}
 4959              		.cfi_def_cfa_offset 4
 4960              		.cfi_offset 7, -4
 4961 0002 00AF     		add	r7, sp, #0
 4962              		.cfi_def_cfa_register 7
1166:bluetooth_rxtx.c **** 	/* make sure the (active low) slave select signal is not active */
1167:bluetooth_rxtx.c **** 	DIO_SSEL_SET;
 4963              		.loc 1 1167 0
 4964 0004 104B     		ldr	r3, .L217
 4965 0006 4FF08052 		mov	r2, #268435456
 4966 000a 1A60     		str	r2, [r3]
1168:bluetooth_rxtx.c **** 
1169:bluetooth_rxtx.c **** 	/* enable rx DMA on DIO_SSP */
1170:bluetooth_rxtx.c **** 	DIO_SSP_DMACR |= SSPDMACR_RXDMAE;
 4967              		.loc 1 1170 0
 4968 000c 0F4A     		ldr	r2, .L217+4
 4969 000e 0F4B     		ldr	r3, .L217+4
 4970 0010 1B68     		ldr	r3, [r3]
 4971 0012 43F00103 		orr	r3, r3, #1
 4972 0016 1360     		str	r3, [r2]
1171:bluetooth_rxtx.c **** 	DIO_SSP_CR1 |= SSPCR1_SSE;
 4973              		.loc 1 1171 0
 4974 0018 0D4A     		ldr	r2, .L217+8
 4975 001a 0D4B     		ldr	r3, .L217+8
 4976 001c 1B68     		ldr	r3, [r3]
 4977 001e 43F00203 		orr	r3, r3, #2
 4978 0022 1360     		str	r3, [r2]
1172:bluetooth_rxtx.c **** 	
1173:bluetooth_rxtx.c **** 	/* enable DMA */
1174:bluetooth_rxtx.c **** 	DMACC0Config |= DMACCxConfig_E;
 4979              		.loc 1 1174 0
 4980 0024 0B4A     		ldr	r2, .L217+12
 4981 0026 0B4B     		ldr	r3, .L217+12
 4982 0028 1B68     		ldr	r3, [r3]
 4983 002a 43F00103 		orr	r3, r3, #1
 4984 002e 1360     		str	r3, [r2]
1175:bluetooth_rxtx.c **** 	ISER0 = ISER0_ISE_DMA;
 4985              		.loc 1 1175 0
 4986 0030 094B     		ldr	r3, .L217+16
 4987 0032 4FF08062 		mov	r2, #67108864
 4988 0036 1A60     		str	r2, [r3]
1176:bluetooth_rxtx.c **** 
1177:bluetooth_rxtx.c **** 	/* activate slave select pin */
1178:bluetooth_rxtx.c **** 	DIO_SSEL_CLR;
 4989              		.loc 1 1178 0
 4990 0038 084B     		ldr	r3, .L217+20
 4991 003a 4FF08052 		mov	r2, #268435456
 4992 003e 1A60     		str	r2, [r3]
ARM GAS  /tmp/ccHz27EZ.s 			page 108


1179:bluetooth_rxtx.c **** }
 4993              		.loc 1 1179 0
 4994 0040 BD46     		mov	sp, r7
 4995              		.cfi_def_cfa_register 13
 4996              		@ sp needed
 4997 0042 5DF8047B 		ldr	r7, [sp], #4
 4998              		.cfi_restore 7
 4999              		.cfi_def_cfa_offset 0
 5000 0046 7047     		bx	lr
 5001              	.L218:
 5002              		.align	2
 5003              	.L217:
 5004 0048 98C00920 		.word	537510040
 5005 004c 24000340 		.word	1073938468
 5006 0050 04000340 		.word	1073938436
 5007 0054 10410050 		.word	1342193936
 5008 0058 00E100E0 		.word	-536813312
 5009 005c 9CC00920 		.word	537510044
 5010              		.cfi_endproc
 5011              	.LFE21:
 5013              		.section	.text.dio_ssp_stop,"ax",%progbits
 5014              		.align	2
 5015              		.thumb
 5016              		.thumb_func
 5018              	dio_ssp_stop:
 5019              	.LFB22:
1180:bluetooth_rxtx.c **** 
1181:bluetooth_rxtx.c **** static void dio_ssp_stop()
1182:bluetooth_rxtx.c **** {
 5020              		.loc 1 1182 0
 5021              		.cfi_startproc
 5022              		@ args = 0, pretend = 0, frame = 0
 5023              		@ frame_needed = 1, uses_anonymous_args = 0
 5024              		@ link register save eliminated.
 5025 0000 80B4     		push	{r7}
 5026              		.cfi_def_cfa_offset 4
 5027              		.cfi_offset 7, -4
 5028 0002 00AF     		add	r7, sp, #0
 5029              		.cfi_def_cfa_register 7
1183:bluetooth_rxtx.c **** 	// disable CC2400's output (active low)
1184:bluetooth_rxtx.c **** 	DIO_SSEL_SET;
 5030              		.loc 1 1184 0
 5031 0004 214B     		ldr	r3, .L221
 5032 0006 4FF08052 		mov	r2, #268435456
 5033 000a 1A60     		str	r2, [r3]
1185:bluetooth_rxtx.c **** 
1186:bluetooth_rxtx.c **** 	// disable DMA on SSP; disable SSP
1187:bluetooth_rxtx.c **** 	DIO_SSP_DMACR &= ~SSPDMACR_RXDMAE;
 5034              		.loc 1 1187 0
 5035 000c 204A     		ldr	r2, .L221+4
 5036 000e 204B     		ldr	r3, .L221+4
 5037 0010 1B68     		ldr	r3, [r3]
 5038 0012 23F00103 		bic	r3, r3, #1
 5039 0016 1360     		str	r3, [r2]
1188:bluetooth_rxtx.c **** 	DIO_SSP_CR1 &= ~SSPCR1_SSE;
 5040              		.loc 1 1188 0
 5041 0018 1E4A     		ldr	r2, .L221+8
ARM GAS  /tmp/ccHz27EZ.s 			page 109


 5042 001a 1E4B     		ldr	r3, .L221+8
 5043 001c 1B68     		ldr	r3, [r3]
 5044 001e 23F00203 		bic	r3, r3, #2
 5045 0022 1360     		str	r3, [r2]
1189:bluetooth_rxtx.c **** 
1190:bluetooth_rxtx.c **** 
1191:bluetooth_rxtx.c **** 	// disable DMA engine:
1192:bluetooth_rxtx.c **** 	// refer to UM10360 LPC17xx User Manual Ch 31 Sec 31.6.1, PDF page 607
1193:bluetooth_rxtx.c **** 
1194:bluetooth_rxtx.c **** 	// disable DMA interrupts
1195:bluetooth_rxtx.c **** 	ICER0 = ICER0_ICE_DMA;
 5046              		.loc 1 1195 0
 5047 0024 1C4B     		ldr	r3, .L221+12
 5048 0026 4FF08062 		mov	r2, #67108864
 5049 002a 1A60     		str	r2, [r3]
1196:bluetooth_rxtx.c **** 
1197:bluetooth_rxtx.c **** 	// disable active channels
1198:bluetooth_rxtx.c **** 	DMACC0Config = 0;
 5050              		.loc 1 1198 0
 5051 002c 1B4B     		ldr	r3, .L221+16
 5052 002e 0022     		movs	r2, #0
 5053 0030 1A60     		str	r2, [r3]
1199:bluetooth_rxtx.c **** 	DMACC1Config = 0;
 5054              		.loc 1 1199 0
 5055 0032 1B4B     		ldr	r3, .L221+20
 5056 0034 0022     		movs	r2, #0
 5057 0036 1A60     		str	r2, [r3]
1200:bluetooth_rxtx.c **** 	DMACC2Config = 0;
 5058              		.loc 1 1200 0
 5059 0038 1A4B     		ldr	r3, .L221+24
 5060 003a 0022     		movs	r2, #0
 5061 003c 1A60     		str	r2, [r3]
1201:bluetooth_rxtx.c **** 	DMACC3Config = 0;
 5062              		.loc 1 1201 0
 5063 003e 1A4B     		ldr	r3, .L221+28
 5064 0040 0022     		movs	r2, #0
 5065 0042 1A60     		str	r2, [r3]
1202:bluetooth_rxtx.c **** 	DMACC4Config = 0;
 5066              		.loc 1 1202 0
 5067 0044 194B     		ldr	r3, .L221+32
 5068 0046 0022     		movs	r2, #0
 5069 0048 1A60     		str	r2, [r3]
1203:bluetooth_rxtx.c **** 	DMACC5Config = 0;
 5070              		.loc 1 1203 0
 5071 004a 194B     		ldr	r3, .L221+36
 5072 004c 0022     		movs	r2, #0
 5073 004e 1A60     		str	r2, [r3]
1204:bluetooth_rxtx.c **** 	DMACC6Config = 0;
 5074              		.loc 1 1204 0
 5075 0050 184B     		ldr	r3, .L221+40
 5076 0052 0022     		movs	r2, #0
 5077 0054 1A60     		str	r2, [r3]
1205:bluetooth_rxtx.c **** 	DMACC7Config = 0;
 5078              		.loc 1 1205 0
 5079 0056 184B     		ldr	r3, .L221+44
 5080 0058 0022     		movs	r2, #0
 5081 005a 1A60     		str	r2, [r3]
ARM GAS  /tmp/ccHz27EZ.s 			page 110


1206:bluetooth_rxtx.c **** 	DMACIntTCClear = 0xFF;
 5082              		.loc 1 1206 0
 5083 005c 174B     		ldr	r3, .L221+48
 5084 005e FF22     		movs	r2, #255
 5085 0060 1A60     		str	r2, [r3]
1207:bluetooth_rxtx.c **** 	DMACIntErrClr = 0xFF;
 5086              		.loc 1 1207 0
 5087 0062 174B     		ldr	r3, .L221+52
 5088 0064 FF22     		movs	r2, #255
 5089 0066 1A60     		str	r2, [r3]
1208:bluetooth_rxtx.c **** 
1209:bluetooth_rxtx.c **** 	// Disable the DMA controller by writing 0 to the DMA Enable bit in the DMACConfig
1210:bluetooth_rxtx.c **** 	// register.
1211:bluetooth_rxtx.c **** 	DMACConfig &= ~DMACConfig_E;
 5090              		.loc 1 1211 0
 5091 0068 164A     		ldr	r2, .L221+56
 5092 006a 164B     		ldr	r3, .L221+56
 5093 006c 1B68     		ldr	r3, [r3]
 5094 006e 23F00103 		bic	r3, r3, #1
 5095 0072 1360     		str	r3, [r2]
1212:bluetooth_rxtx.c **** 	while (DMACConfig & DMACConfig_E);
 5096              		.loc 1 1212 0
 5097 0074 00BF     		nop
 5098              	.L220:
 5099              		.loc 1 1212 0 is_stmt 0 discriminator 1
 5100 0076 134B     		ldr	r3, .L221+56
 5101 0078 1B68     		ldr	r3, [r3]
 5102 007a 03F00103 		and	r3, r3, #1
 5103 007e 002B     		cmp	r3, #0
 5104 0080 F9D1     		bne	.L220
1213:bluetooth_rxtx.c **** }
 5105              		.loc 1 1213 0 is_stmt 1
 5106 0082 BD46     		mov	sp, r7
 5107              		.cfi_def_cfa_register 13
 5108              		@ sp needed
 5109 0084 5DF8047B 		ldr	r7, [sp], #4
